
mm.riscv:     file format elf64-littleriscv


Disassembly of section .text.init:

0000000080000000 <_start>:
    80000000:	4081                	li	ra,0
    80000002:	4101                	li	sp,0
    80000004:	4181                	li	gp,0
    80000006:	4201                	li	tp,0
    80000008:	4281                	li	t0,0
    8000000a:	4301                	li	t1,0
    8000000c:	4381                	li	t2,0
    8000000e:	4401                	li	s0,0
    80000010:	4481                	li	s1,0
    80000012:	4501                	li	a0,0
    80000014:	4581                	li	a1,0
    80000016:	4601                	li	a2,0
    80000018:	4681                	li	a3,0
    8000001a:	4701                	li	a4,0
    8000001c:	4781                	li	a5,0
    8000001e:	4801                	li	a6,0
    80000020:	4881                	li	a7,0
    80000022:	4901                	li	s2,0
    80000024:	4981                	li	s3,0
    80000026:	4a01                	li	s4,0
    80000028:	4a81                	li	s5,0
    8000002a:	4b01                	li	s6,0
    8000002c:	4b81                	li	s7,0
    8000002e:	4c01                	li	s8,0
    80000030:	4c81                	li	s9,0
    80000032:	4d01                	li	s10,0
    80000034:	4d81                	li	s11,0
    80000036:	4e01                	li	t3,0
    80000038:	4e81                	li	t4,0
    8000003a:	4f01                	li	t5,0
    8000003c:	4f81                	li	t6,0
    8000003e:	62f9                	lui	t0,0x1e
    80000040:	3002a073          	csrs	mstatus,t0
    80000044:	4285                	li	t0,1
    80000046:	02fe                	slli	t0,t0,0x1f
    80000048:	0002d863          	bgez	t0,80000058 <_start+0x58>
    8000004c:	4505                	li	a0,1
    8000004e:	00001297          	auipc	t0,0x1
    80000052:	faa2a923          	sw	a0,-78(t0) # 80001000 <tohost>
    80000056:	bfdd                	j	8000004c <_start+0x4c>
    80000058:	00000297          	auipc	t0,0x0
    8000005c:	09028293          	addi	t0,t0,144 # 800000e8 <_start+0xe8>
    80000060:	30529073          	csrw	mtvec,t0
    80000064:	00301073          	fssr	zero
    80000068:	f0000053          	fmv.w.x	ft0,zero
    8000006c:	f00000d3          	fmv.w.x	ft1,zero
    80000070:	f0000153          	fmv.w.x	ft2,zero
    80000074:	f00001d3          	fmv.w.x	ft3,zero
    80000078:	f0000253          	fmv.w.x	ft4,zero
    8000007c:	f00002d3          	fmv.w.x	ft5,zero
    80000080:	f0000353          	fmv.w.x	ft6,zero
    80000084:	f00003d3          	fmv.w.x	ft7,zero
    80000088:	f0000453          	fmv.w.x	fs0,zero
    8000008c:	f00004d3          	fmv.w.x	fs1,zero
    80000090:	f0000553          	fmv.w.x	fa0,zero
    80000094:	f00005d3          	fmv.w.x	fa1,zero
    80000098:	f0000653          	fmv.w.x	fa2,zero
    8000009c:	f00006d3          	fmv.w.x	fa3,zero
    800000a0:	f0000753          	fmv.w.x	fa4,zero
    800000a4:	f00007d3          	fmv.w.x	fa5,zero
    800000a8:	f0000853          	fmv.w.x	fa6,zero
    800000ac:	f00008d3          	fmv.w.x	fa7,zero
    800000b0:	f0000953          	fmv.w.x	fs2,zero
    800000b4:	f00009d3          	fmv.w.x	fs3,zero
    800000b8:	f0000a53          	fmv.w.x	fs4,zero
    800000bc:	f0000ad3          	fmv.w.x	fs5,zero
    800000c0:	f0000b53          	fmv.w.x	fs6,zero
    800000c4:	f0000bd3          	fmv.w.x	fs7,zero
    800000c8:	f0000c53          	fmv.w.x	fs8,zero
    800000cc:	f0000cd3          	fmv.w.x	fs9,zero
    800000d0:	f0000d53          	fmv.w.x	fs10,zero
    800000d4:	f0000dd3          	fmv.w.x	fs11,zero
    800000d8:	f0000e53          	fmv.w.x	ft8,zero
    800000dc:	f0000ed3          	fmv.w.x	ft9,zero
    800000e0:	f0000f53          	fmv.w.x	ft10,zero
    800000e4:	f0000fd3          	fmv.w.x	ft11,zero
    800000e8:	00000297          	auipc	t0,0x0
    800000ec:	03828293          	addi	t0,t0,56 # 80000120 <trap_entry>
    800000f0:	30529073          	csrw	mtvec,t0
    800000f4:	00005197          	auipc	gp,0x5
    800000f8:	79418193          	addi	gp,gp,1940 # 80005888 <__global_pointer$>
    800000fc:	ab718213          	addi	tp,gp,-1353 # 8000533f <_end+0x3f>
    80000100:	fc027213          	andi	tp,tp,-64
    80000104:	f1402573          	csrr	a0,mhartid
    80000108:	4585                	li	a1,1
    8000010a:	00b57063          	bleu	a1,a0,8000010a <_start+0x10a>
    8000010e:	00150113          	addi	sp,a0,1
    80000112:	0146                	slli	sp,sp,0x11
    80000114:	9112                	add	sp,sp,tp
    80000116:	01151613          	slli	a2,a0,0x11
    8000011a:	9232                	add	tp,tp,a2
    8000011c:	5df0406f          	j	80004efa <_init>

0000000080000120 <trap_entry>:
    80000120:	716d                	addi	sp,sp,-272
    80000122:	e406                	sd	ra,8(sp)
    80000124:	e80a                	sd	sp,16(sp)
    80000126:	ec0e                	sd	gp,24(sp)
    80000128:	f012                	sd	tp,32(sp)
    8000012a:	f416                	sd	t0,40(sp)
    8000012c:	f81a                	sd	t1,48(sp)
    8000012e:	fc1e                	sd	t2,56(sp)
    80000130:	e0a2                	sd	s0,64(sp)
    80000132:	e4a6                	sd	s1,72(sp)
    80000134:	e8aa                	sd	a0,80(sp)
    80000136:	ecae                	sd	a1,88(sp)
    80000138:	f0b2                	sd	a2,96(sp)
    8000013a:	f4b6                	sd	a3,104(sp)
    8000013c:	f8ba                	sd	a4,112(sp)
    8000013e:	fcbe                	sd	a5,120(sp)
    80000140:	e142                	sd	a6,128(sp)
    80000142:	e546                	sd	a7,136(sp)
    80000144:	e94a                	sd	s2,144(sp)
    80000146:	ed4e                	sd	s3,152(sp)
    80000148:	f152                	sd	s4,160(sp)
    8000014a:	f556                	sd	s5,168(sp)
    8000014c:	f95a                	sd	s6,176(sp)
    8000014e:	fd5e                	sd	s7,184(sp)
    80000150:	e1e2                	sd	s8,192(sp)
    80000152:	e5e6                	sd	s9,200(sp)
    80000154:	e9ea                	sd	s10,208(sp)
    80000156:	edee                	sd	s11,216(sp)
    80000158:	f1f2                	sd	t3,224(sp)
    8000015a:	f5f6                	sd	t4,232(sp)
    8000015c:	f9fa                	sd	t5,240(sp)
    8000015e:	fdfe                	sd	t6,248(sp)
    80000160:	34202573          	csrr	a0,mcause
    80000164:	341025f3          	csrr	a1,mepc
    80000168:	860a                	mv	a2,sp
    8000016a:	3cf040ef          	jal	ra,80004d38 <handle_trap>
    8000016e:	34151073          	csrw	mepc,a0
    80000172:	000022b7          	lui	t0,0x2
    80000176:	8002829b          	addiw	t0,t0,-2048
    8000017a:	3002a073          	csrs	mstatus,t0
    8000017e:	60a2                	ld	ra,8(sp)
    80000180:	6142                	ld	sp,16(sp)
    80000182:	61e2                	ld	gp,24(sp)
    80000184:	7202                	ld	tp,32(sp)
    80000186:	72a2                	ld	t0,40(sp)
    80000188:	7342                	ld	t1,48(sp)
    8000018a:	73e2                	ld	t2,56(sp)
    8000018c:	6406                	ld	s0,64(sp)
    8000018e:	64a6                	ld	s1,72(sp)
    80000190:	6546                	ld	a0,80(sp)
    80000192:	65e6                	ld	a1,88(sp)
    80000194:	7606                	ld	a2,96(sp)
    80000196:	76a6                	ld	a3,104(sp)
    80000198:	7746                	ld	a4,112(sp)
    8000019a:	77e6                	ld	a5,120(sp)
    8000019c:	680a                	ld	a6,128(sp)
    8000019e:	68aa                	ld	a7,136(sp)
    800001a0:	694a                	ld	s2,144(sp)
    800001a2:	69ea                	ld	s3,152(sp)
    800001a4:	7a0a                	ld	s4,160(sp)
    800001a6:	7aaa                	ld	s5,168(sp)
    800001a8:	7b4a                	ld	s6,176(sp)
    800001aa:	7bea                	ld	s7,184(sp)
    800001ac:	6c0e                	ld	s8,192(sp)
    800001ae:	6cae                	ld	s9,200(sp)
    800001b0:	6d4e                	ld	s10,208(sp)
    800001b2:	6dee                	ld	s11,216(sp)
    800001b4:	7e0e                	ld	t3,224(sp)
    800001b6:	7eae                	ld	t4,232(sp)
    800001b8:	7f4e                	ld	t5,240(sp)
    800001ba:	7fee                	ld	t6,248(sp)
    800001bc:	6151                	addi	sp,sp,272
    800001be:	30200073          	mret

Disassembly of section .text:

0000000080002000 <mm_naive>:
    80002000:	12050963          	beqz	a0,80002132 <mm_naive+0x132>
    80002004:	7159                	addi	sp,sp,-112
    80002006:	e86e                	sd	s11,16(sp)
    80002008:	7dc6                	ld	s11,112(sp)
    8000200a:	f4a2                	sd	s0,104(sp)
    8000200c:	00381413          	slli	s0,a6,0x3
    80002010:	f0a6                	sd	s1,96(sp)
    80002012:	f85e                	sd	s7,48(sp)
    80002014:	f462                	sd	s8,40(sp)
    80002016:	00361493          	slli	s1,a2,0x3
    8000201a:	41000bb3          	neg	s7,a6
    8000201e:	8c46                	mv	s8,a7
    80002020:	008788b3          	add	a7,a5,s0
    80002024:	e0d6                	sd	s5,64(sp)
    80002026:	fc5a                	sd	s6,56(sp)
    80002028:	f066                	sd	s9,32(sp)
    8000202a:	ec6a                	sd	s10,24(sp)
    8000202c:	e446                	sd	a7,8(sp)
    8000202e:	ecca                	sd	s2,88(sp)
    80002030:	e8ce                	sd	s3,80(sp)
    80002032:	e4d2                	sd	s4,72(sp)
    80002034:	0d8e                	slli	s11,s11,0x3
    80002036:	00371d13          	slli	s10,a4,0x3
    8000203a:	8b36                	mv	s6,a3
    8000203c:	94b6                	add	s1,s1,a3
    8000203e:	00581e13          	slli	t3,a6,0x5
    80002042:	0b8e                	slli	s7,s7,0x3
    80002044:	4a81                	li	s5,0
    80002046:	4c81                	li	s9,0
    80002048:	ffc67893          	andi	a7,a2,-4
    8000204c:	c9d5                	beqz	a1,80002100 <mm_naive+0x100>
    8000204e:	6922                	ld	s2,8(sp)
    80002050:	89e2                	mv	s3,s8
    80002052:	4a01                	li	s4,0
    80002054:	0009b787          	fld	fa5,0(s3)
    80002058:	0c088963          	beqz	a7,8000212a <mm_naive+0x12a>
    8000205c:	f20006d3          	fmv.d.x	fa3,zero
    80002060:	01240eb3          	add	t4,s0,s2
    80002064:	012b83b3          	add	t2,s7,s2
    80002068:	22d68653          	fmv.d	fa2,fa3
    8000206c:	22d68753          	fmv.d	fa4,fa3
    80002070:	008e82b3          	add	t0,t4,s0
    80002074:	8fca                	mv	t6,s2
    80002076:	835a                	mv	t1,s6
    80002078:	4f01                	li	t5,0
    8000207a:	00033287          	fld	ft5,0(t1)
    8000207e:	0003b207          	fld	ft4,0(t2)
    80002082:	00833187          	fld	ft3,8(t1)
    80002086:	000fb107          	fld	ft2,0(t6)
    8000208a:	01033087          	fld	ft1,16(t1)
    8000208e:	000eb007          	fld	ft0,0(t4)
    80002092:	01833507          	fld	fa0,24(t1)
    80002096:	0002b587          	fld	fa1,0(t0) # 2000 <buflen.2836+0x1f80>
    8000209a:	0f11                	addi	t5,t5,4
    8000209c:	7a42f7c3          	fmadd.d	fa5,ft5,ft4,fa5
    800020a0:	7221f743          	fmadd.d	fa4,ft3,ft2,fa4
    800020a4:	6200f643          	fmadd.d	fa2,ft1,ft0,fa2
    800020a8:	6ab576c3          	fmadd.d	fa3,fa0,fa1,fa3
    800020ac:	02030313          	addi	t1,t1,32
    800020b0:	93f2                	add	t2,t2,t3
    800020b2:	9ff2                	add	t6,t6,t3
    800020b4:	9ef2                	add	t4,t4,t3
    800020b6:	92f2                	add	t0,t0,t3
    800020b8:	fd1f61e3          	bltu	t5,a7,8000207a <mm_naive+0x7a>
    800020bc:	02c77753          	fadd.d	fa4,fa4,fa2
    800020c0:	8346                	mv	t1,a7
    800020c2:	02d77753          	fadd.d	fa4,fa4,fa3
    800020c6:	02c37463          	bleu	a2,t1,800020ee <mm_naive+0xee>
    800020ca:	02680eb3          	mul	t4,a6,t1
    800020ce:	9356                	add	t1,t1,s5
    800020d0:	030e                	slli	t1,t1,0x3
    800020d2:	9336                	add	t1,t1,a3
    800020d4:	9ed2                	add	t4,t4,s4
    800020d6:	0e8e                	slli	t4,t4,0x3
    800020d8:	9ebe                	add	t4,t4,a5
    800020da:	00033607          	fld	fa2,0(t1)
    800020de:	000eb687          	fld	fa3,0(t4)
    800020e2:	0321                	addi	t1,t1,8
    800020e4:	9ea2                	add	t4,t4,s0
    800020e6:	7ad677c3          	fmadd.d	fa5,fa2,fa3,fa5
    800020ea:	fe6498e3          	bne	s1,t1,800020da <mm_naive+0xda>
    800020ee:	02e7f7d3          	fadd.d	fa5,fa5,fa4
    800020f2:	09a1                	addi	s3,s3,8
    800020f4:	0a05                	addi	s4,s4,1
    800020f6:	0921                	addi	s2,s2,8
    800020f8:	fef9bc27          	fsd	fa5,-8(s3)
    800020fc:	f5459ce3          	bne	a1,s4,80002054 <mm_naive+0x54>
    80002100:	0c85                	addi	s9,s9,1
    80002102:	9c6e                	add	s8,s8,s11
    80002104:	9b6a                	add	s6,s6,s10
    80002106:	94ea                	add	s1,s1,s10
    80002108:	9aba                	add	s5,s5,a4
    8000210a:	f59511e3          	bne	a0,s9,8000204c <mm_naive+0x4c>
    8000210e:	7426                	ld	s0,104(sp)
    80002110:	7486                	ld	s1,96(sp)
    80002112:	6966                	ld	s2,88(sp)
    80002114:	69c6                	ld	s3,80(sp)
    80002116:	6a26                	ld	s4,72(sp)
    80002118:	6a86                	ld	s5,64(sp)
    8000211a:	7b62                	ld	s6,56(sp)
    8000211c:	7bc2                	ld	s7,48(sp)
    8000211e:	7c22                	ld	s8,40(sp)
    80002120:	7c82                	ld	s9,32(sp)
    80002122:	6d62                	ld	s10,24(sp)
    80002124:	6dc2                	ld	s11,16(sp)
    80002126:	6165                	addi	sp,sp,112
    80002128:	8082                	ret
    8000212a:	f2000753          	fmv.d.x	fa4,zero
    8000212e:	4301                	li	t1,0
    80002130:	bf59                	j	800020c6 <mm_naive+0xc6>
    80002132:	8082                	ret

0000000080002134 <mm_cb>:
    80002134:	d8010113          	addi	sp,sp,-640
    80002138:	26813823          	sd	s0,624(sp)
    8000213c:	26913423          	sd	s1,616(sp)
    80002140:	0500                	addi	s0,sp,640
    80002142:	26113c23          	sd	ra,632(sp)
    80002146:	27213023          	sd	s2,608(sp)
    8000214a:	25313c23          	sd	s3,600(sp)
    8000214e:	25413823          	sd	s4,592(sp)
    80002152:	25513423          	sd	s5,584(sp)
    80002156:	25613023          	sd	s6,576(sp)
    8000215a:	23713c23          	sd	s7,568(sp)
    8000215e:	23813823          	sd	s8,560(sp)
    80002162:	23913423          	sd	s9,552(sp)
    80002166:	23a13023          	sd	s10,544(sp)
    8000216a:	21b13c23          	sd	s11,536(sp)
    8000216e:	20813427          	fsd	fs0,520(sp)
    80002172:	20913027          	fsd	fs1,512(sp)
    80002176:	bfca                	fsd	fs2,504(sp)
    80002178:	bbce                	fsd	fs3,496(sp)
    8000217a:	b7d2                	fsd	fs4,488(sp)
    8000217c:	b3d6                	fsd	fs5,480(sp)
    8000217e:	afda                	fsd	fs6,472(sp)
    80002180:	abde                	fsd	fs7,464(sp)
    80002182:	a7e2                	fsd	fs8,456(sp)
    80002184:	a3e6                	fsd	fs9,448(sp)
    80002186:	bf6a                	fsd	fs10,440(sp)
    80002188:	bb6e                	fsd	fs11,432(sp)
    8000218a:	8eb2                	mv	t4,a2
    8000218c:	f0c43023          	sd	a2,-256(s0)
    80002190:	4665                	li	a2,25
    80002192:	02c5d4b3          	divu	s1,a1,a2
    80002196:	4361                	li	t1,24
    80002198:	f0e43c23          	sd	a4,-232(s0)
    8000219c:	8e3a                	mv	t3,a4
    8000219e:	e6a43823          	sd	a0,-400(s0)
    800021a2:	eab43c23          	sd	a1,-328(s0)
    800021a6:	ded43c23          	sd	a3,-520(s0)
    800021aa:	6609                	lui	a2,0x2
    800021ac:	167d                	addi	a2,a2,-1
    800021ae:	75f9                	lui	a1,0xffffe
    800021b0:	026ed733          	divu	a4,t4,t1
    800021b4:	ec943823          	sd	s1,-304(s0)
    800021b8:	e6f43423          	sd	a5,-408(s0)
    800021bc:	00149793          	slli	a5,s1,0x1
    800021c0:	97a6                	add	a5,a5,s1
    800021c2:	078e                	slli	a5,a5,0x3
    800021c4:	f3043023          	sd	a6,-224(s0)
    800021c8:	00978833          	add	a6,a5,s1
    800021cc:	eb143023          	sd	a7,-352(s0)
    800021d0:	ef043823          	sd	a6,-272(s0)
    800021d4:	02655333          	divu	t1,a0,t1
    800021d8:	00171793          	slli	a5,a4,0x1
    800021dc:	97ba                	add	a5,a5,a4
    800021de:	00379493          	slli	s1,a5,0x3
    800021e2:	e2e43c23          	sd	a4,-456(s0)
    800021e6:	f0943823          	sd	s1,-240(s0)
    800021ea:	00131793          	slli	a5,t1,0x1
    800021ee:	933e                	add	t1,t1,a5
    800021f0:	00331513          	slli	a0,t1,0x3
    800021f4:	029507b3          	mul	a5,a0,s1
    800021f8:	eea43c23          	sd	a0,-264(s0)
    800021fc:	40078793          	addi	a5,a5,1024
    80002200:	078e                	slli	a5,a5,0x3
    80002202:	07c1                	addi	a5,a5,16
    80002204:	40f10133          	sub	sp,sp,a5
    80002208:	081c                	addi	a5,sp,16
    8000220a:	97b2                	add	a5,a5,a2
    8000220c:	8fed                	and	a5,a5,a1
    8000220e:	02980733          	mul	a4,a6,s1
    80002212:	e2f43823          	sd	a5,-464(s0)
    80002216:	030507b3          	mul	a5,a0,a6
    8000221a:	40070713          	addi	a4,a4,1024
    8000221e:	070e                	slli	a4,a4,0x3
    80002220:	0741                	addi	a4,a4,16
    80002222:	40e10133          	sub	sp,sp,a4
    80002226:	0818                	addi	a4,sp,16
    80002228:	9732                	add	a4,a4,a2
    8000222a:	8f6d                	and	a4,a4,a1
    8000222c:	e2e43423          	sd	a4,-472(s0)
    80002230:	40078793          	addi	a5,a5,1024
    80002234:	078e                	slli	a5,a5,0x3
    80002236:	07c1                	addi	a5,a5,16
    80002238:	40f10133          	sub	sp,sp,a5
    8000223c:	081c                	addi	a5,sp,16
    8000223e:	963e                	add	a2,a2,a5
    80002240:	00b677b3          	and	a5,a2,a1
    80002244:	eaf43823          	sd	a5,-336(s0)
    80002248:	cd55                	beqz	a0,80002304 <mm_cb+0x1d0>
    8000224a:	001e1813          	slli	a6,t3,0x1
    8000224e:	01c80fb3          	add	t6,a6,t3
    80002252:	003e1513          	slli	a0,t3,0x3
    80002256:	6e85                	lui	t4,0x1
    80002258:	0f9a                	slli	t6,t6,0x6
    8000225a:	8f36                	mv	t5,a3
    8000225c:	e4a43c23          	sd	a0,-424(s0)
    80002260:	4301                	li	t1,0
    80002262:	43e1                	li	t2,24
    80002264:	200e8e93          	addi	t4,t4,512 # 1200 <buflen.2836+0x1180>
    80002268:	ccb5                	beqz	s1,800022e4 <mm_cb+0x1b0>
    8000226a:	027358b3          	divu	a7,t1,t2
    8000226e:	e3843783          	ld	a5,-456(s0)
    80002272:	82fa                	mv	t0,t5
    80002274:	4e01                	li	t3,0
    80002276:	02f888b3          	mul	a7,a7,a5
    8000227a:	8616                	mv	a2,t0
    8000227c:	027e57b3          	divu	a5,t3,t2
    80002280:	97c6                	add	a5,a5,a7
    80002282:	00379693          	slli	a3,a5,0x3
    80002286:	96be                	add	a3,a3,a5
    80002288:	e3043783          	ld	a5,-464(s0)
    8000228c:	06a6                	slli	a3,a3,0x9
    8000228e:	96be                	add	a3,a3,a5
    80002290:	01d68933          	add	s2,a3,t4
    80002294:	0c060593          	addi	a1,a2,192 # 20c0 <buflen.2836+0x2040>
    80002298:	8736                	mv	a4,a3
    8000229a:	87b2                	mv	a5,a2
    8000229c:	0007b087          	fld	ft1,0(a5)
    800022a0:	0087b007          	fld	ft0,8(a5)
    800022a4:	2b88                	fld	fa0,16(a5)
    800022a6:	2f8c                	fld	fa1,24(a5)
    800022a8:	3390                	fld	fa2,32(a5)
    800022aa:	3794                	fld	fa3,40(a5)
    800022ac:	3b98                	fld	fa4,48(a5)
    800022ae:	3f9c                	fld	fa5,56(a5)
    800022b0:	00173027          	fsd	ft1,0(a4)
    800022b4:	00073427          	fsd	ft0,8(a4)
    800022b8:	ab08                	fsd	fa0,16(a4)
    800022ba:	af0c                	fsd	fa1,24(a4)
    800022bc:	b310                	fsd	fa2,32(a4)
    800022be:	b714                	fsd	fa3,40(a4)
    800022c0:	bb18                	fsd	fa4,48(a4)
    800022c2:	bf1c                	fsd	fa5,56(a4)
    800022c4:	04078793          	addi	a5,a5,64
    800022c8:	04070713          	addi	a4,a4,64
    800022cc:	fcf598e3          	bne	a1,a5,8000229c <mm_cb+0x168>
    800022d0:	0c068693          	addi	a3,a3,192
    800022d4:	962a                	add	a2,a2,a0
    800022d6:	fad91fe3          	bne	s2,a3,80002294 <mm_cb+0x160>
    800022da:	0e61                	addi	t3,t3,24
    800022dc:	0c028293          	addi	t0,t0,192
    800022e0:	f89e6de3          	bltu	t3,s1,8000227a <mm_cb+0x146>
    800022e4:	ef843783          	ld	a5,-264(s0)
    800022e8:	0361                	addi	t1,t1,24
    800022ea:	9f7e                	add	t5,t5,t6
    800022ec:	f6f36ee3          	bltu	t1,a5,80002268 <mm_cb+0x134>
    800022f0:	f1043783          	ld	a5,-240(s0)
    800022f4:	ef81                	bnez	a5,8000230c <mm_cb+0x1d8>
    800022f6:	f2043783          	ld	a5,-224(s0)
    800022fa:	00179513          	slli	a0,a5,0x1
    800022fe:	00379b93          	slli	s7,a5,0x3
    80002302:	a8d1                	j	800023d6 <mm_cb+0x2a2>
    80002304:	f1043783          	ld	a5,-240(s0)
    80002308:	78078d63          	beqz	a5,80002aa2 <mm_cb+0x96e>
    8000230c:	f2043783          	ld	a5,-224(s0)
    80002310:	e6843703          	ld	a4,-408(s0)
    80002314:	ef043f83          	ld	t6,-272(s0)
    80002318:	00179513          	slli	a0,a5,0x1
    8000231c:	00f50f33          	add	t5,a0,a5
    80002320:	6885                	lui	a7,0x1
    80002322:	0f1a                	slli	t5,t5,0x6
    80002324:	0c070e93          	addi	t4,a4,192
    80002328:	00379b93          	slli	s7,a5,0x3
    8000232c:	4301                	li	t1,0
    8000232e:	44e1                	li	s1,24
    80002330:	42e5                	li	t0,25
    80002332:	2c088893          	addi	a7,a7,704 # 12c0 <buflen.2836+0x1240>
    80002336:	060f8f63          	beqz	t6,800023b4 <mm_cb+0x280>
    8000233a:	029355b3          	divu	a1,t1,s1
    8000233e:	ed043783          	ld	a5,-304(s0)
    80002342:	8e76                	mv	t3,t4
    80002344:	4801                	li	a6,0
    80002346:	02f585b3          	mul	a1,a1,a5
    8000234a:	e2843783          	ld	a5,-472(s0)
    8000234e:	86f2                	mv	a3,t3
    80002350:	02585633          	divu	a2,a6,t0
    80002354:	962e                	add	a2,a2,a1
    80002356:	03160633          	mul	a2,a2,a7
    8000235a:	963e                	add	a2,a2,a5
    8000235c:	011603b3          	add	t2,a2,a7
    80002360:	f4068793          	addi	a5,a3,-192
    80002364:	8732                	mv	a4,a2
    80002366:	0007b087          	fld	ft1,0(a5)
    8000236a:	0087b007          	fld	ft0,8(a5)
    8000236e:	2b88                	fld	fa0,16(a5)
    80002370:	2f8c                	fld	fa1,24(a5)
    80002372:	3390                	fld	fa2,32(a5)
    80002374:	3794                	fld	fa3,40(a5)
    80002376:	3b98                	fld	fa4,48(a5)
    80002378:	3f9c                	fld	fa5,56(a5)
    8000237a:	00173027          	fsd	ft1,0(a4)
    8000237e:	00073427          	fsd	ft0,8(a4)
    80002382:	ab08                	fsd	fa0,16(a4)
    80002384:	af0c                	fsd	fa1,24(a4)
    80002386:	b310                	fsd	fa2,32(a4)
    80002388:	b714                	fsd	fa3,40(a4)
    8000238a:	bb18                	fsd	fa4,48(a4)
    8000238c:	bf1c                	fsd	fa5,56(a4)
    8000238e:	04078793          	addi	a5,a5,64
    80002392:	04070713          	addi	a4,a4,64
    80002396:	fcf698e3          	bne	a3,a5,80002366 <mm_cb+0x232>
    8000239a:	229c                	fld	fa5,0(a3)
    8000239c:	0c860613          	addi	a2,a2,200
    800023a0:	96de                	add	a3,a3,s7
    800023a2:	fef63c27          	fsd	fa5,-8(a2)
    800023a6:	fac39de3          	bne	t2,a2,80002360 <mm_cb+0x22c>
    800023aa:	0865                	addi	a6,a6,25
    800023ac:	0c8e0e13          	addi	t3,t3,200
    800023b0:	f9f86de3          	bltu	a6,t6,8000234a <mm_cb+0x216>
    800023b4:	f1043783          	ld	a5,-240(s0)
    800023b8:	0361                	addi	t1,t1,24
    800023ba:	9efa                	add	t4,t4,t5
    800023bc:	f6f36de3          	bltu	t1,a5,80002336 <mm_cb+0x202>
    800023c0:	f1843783          	ld	a5,-232(s0)
    800023c4:	00179813          	slli	a6,a5,0x1
    800023c8:	078e                	slli	a5,a5,0x3
    800023ca:	e4f43c23          	sd	a5,-424(s0)
    800023ce:	ef843783          	ld	a5,-264(s0)
    800023d2:	7a0788e3          	beqz	a5,80003382 <mm_cb+0x124e>
    800023d6:	601c                	ld	a5,0(s0)
    800023d8:	6018                	ld	a4,0(s0)
    800023da:	ef043383          	ld	t2,-272(s0)
    800023de:	0786                	slli	a5,a5,0x1
    800023e0:	97ba                	add	a5,a5,a4
    800023e2:	079a                	slli	a5,a5,0x6
    800023e4:	def43823          	sd	a5,-528(s0)
    800023e8:	ea043783          	ld	a5,-352(s0)
    800023ec:	00371593          	slli	a1,a4,0x3
    800023f0:	6305                	lui	t1,0x1
    800023f2:	0c078f13          	addi	t5,a5,192
    800023f6:	dcb43823          	sd	a1,-560(s0)
    800023fa:	4e01                	li	t3,0
    800023fc:	44e1                	li	s1,24
    800023fe:	42e5                	li	t0,25
    80002400:	2c030313          	addi	t1,t1,704 # 12c0 <buflen.2836+0x1240>
    80002404:	06038f63          	beqz	t2,80002482 <mm_cb+0x34e>
    80002408:	029e58b3          	divu	a7,t3,s1
    8000240c:	ed043783          	ld	a5,-304(s0)
    80002410:	8ffa                	mv	t6,t5
    80002412:	4e81                	li	t4,0
    80002414:	02f888b3          	mul	a7,a7,a5
    80002418:	eb043783          	ld	a5,-336(s0)
    8000241c:	86fe                	mv	a3,t6
    8000241e:	025ed633          	divu	a2,t4,t0
    80002422:	9646                	add	a2,a2,a7
    80002424:	02660633          	mul	a2,a2,t1
    80002428:	963e                	add	a2,a2,a5
    8000242a:	00660933          	add	s2,a2,t1
    8000242e:	f4068793          	addi	a5,a3,-192
    80002432:	8732                	mv	a4,a2
    80002434:	0007b087          	fld	ft1,0(a5)
    80002438:	0087b007          	fld	ft0,8(a5)
    8000243c:	2b88                	fld	fa0,16(a5)
    8000243e:	2f8c                	fld	fa1,24(a5)
    80002440:	3390                	fld	fa2,32(a5)
    80002442:	3794                	fld	fa3,40(a5)
    80002444:	3b98                	fld	fa4,48(a5)
    80002446:	3f9c                	fld	fa5,56(a5)
    80002448:	00173027          	fsd	ft1,0(a4)
    8000244c:	00073427          	fsd	ft0,8(a4)
    80002450:	ab08                	fsd	fa0,16(a4)
    80002452:	af0c                	fsd	fa1,24(a4)
    80002454:	b310                	fsd	fa2,32(a4)
    80002456:	b714                	fsd	fa3,40(a4)
    80002458:	bb18                	fsd	fa4,48(a4)
    8000245a:	bf1c                	fsd	fa5,56(a4)
    8000245c:	04078793          	addi	a5,a5,64
    80002460:	04070713          	addi	a4,a4,64
    80002464:	fcf698e3          	bne	a3,a5,80002434 <mm_cb+0x300>
    80002468:	229c                	fld	fa5,0(a3)
    8000246a:	0c860613          	addi	a2,a2,200
    8000246e:	96ae                	add	a3,a3,a1
    80002470:	fef63c27          	fsd	fa5,-8(a2)
    80002474:	fac91de3          	bne	s2,a2,8000242e <mm_cb+0x2fa>
    80002478:	0ee5                	addi	t4,t4,25
    8000247a:	0c8f8f93          	addi	t6,t6,200
    8000247e:	f87eede3          	bltu	t4,t2,80002418 <mm_cb+0x2e4>
    80002482:	df043783          	ld	a5,-528(s0)
    80002486:	0e61                	addi	t3,t3,24
    80002488:	9f3e                	add	t5,t5,a5
    8000248a:	ef843783          	ld	a5,-264(s0)
    8000248e:	f6fe6be3          	bltu	t3,a5,80002404 <mm_cb+0x2d0>
    80002492:	f0043703          	ld	a4,-256(s0)
    80002496:	47e1                	li	a5,24
    80002498:	f2043483          	ld	s1,-224(s0)
    8000249c:	02f77333          	remu	t1,a4,a5
    800024a0:	f1843e83          	ld	t4,-232(s0)
    800024a4:	ef043683          	ld	a3,-272(s0)
    800024a8:	00249793          	slli	a5,s1,0x2
    800024ac:	97a6                	add	a5,a5,s1
    800024ae:	9876                	add	a6,a6,t4
    800024b0:	068e                	slli	a3,a3,0x3
    800024b2:	00379d13          	slli	s10,a5,0x3
    800024b6:	00681793          	slli	a5,a6,0x6
    800024ba:	f1043e03          	ld	t3,-240(s0)
    800024be:	e6f43023          	sd	a5,-416(s0)
    800024c2:	87b6                	mv	a5,a3
    800024c4:	ea043683          	ld	a3,-352(s0)
    800024c8:	9526                	add	a0,a0,s1
    800024ca:	00449a93          	slli	s5,s1,0x4
    800024ce:	00549b13          	slli	s6,s1,0x5
    800024d2:	df843483          	ld	s1,-520(s0)
    800024d6:	96be                	add	a3,a3,a5
    800024d8:	003e1893          	slli	a7,t3,0x3
    800024dc:	e8d43023          	sd	a3,-384(s0)
    800024e0:	011486b3          	add	a3,s1,a7
    800024e4:	e6843483          	ld	s1,-408(s0)
    800024e8:	41c005b3          	neg	a1,t3
    800024ec:	ecd43423          	sd	a3,-312(s0)
    800024f0:	97a6                	add	a5,a5,s1
    800024f2:	dcf43023          	sd	a5,-576(s0)
    800024f6:	00359793          	slli	a5,a1,0x3
    800024fa:	daf43423          	sd	a5,-600(s0)
    800024fe:	601c                	ld	a5,0(s0)
    80002500:	005e9693          	slli	a3,t4,0x5
    80002504:	e6d43c23          	sd	a3,-392(s0)
    80002508:	00651693          	slli	a3,a0,0x6
    8000250c:	6605                	lui	a2,0x1
    8000250e:	0796                	slli	a5,a5,0x5
    80002510:	dad43823          	sd	a3,-592(s0)
    80002514:	eb843683          	ld	a3,-328(s0)
    80002518:	e0f43023          	sd	a5,-512(s0)
    8000251c:	38860793          	addi	a5,a2,904 # 1388 <buflen.2836+0x1308>
    80002520:	def43423          	sd	a5,-536(s0)
    80002524:	47e5                	li	a5,25
    80002526:	00451c93          	slli	s9,a0,0x4
    8000252a:	00351a13          	slli	s4,a0,0x3
    8000252e:	4715                	li	a4,5
    80002530:	2c060c13          	addi	s8,a2,704
    80002534:	89de                	mv	s3,s7
    80002536:	e8043c23          	sd	zero,-360(s0)
    8000253a:	02f6f533          	remu	a0,a3,a5
    8000253e:	00331793          	slli	a5,t1,0x3
    80002542:	e2f43023          	sd	a5,-480(s0)
    80002546:	4799                	li	a5,6
    80002548:	e8643823          	sd	t1,-368(s0)
    8000254c:	02f357b3          	divu	a5,t1,a5
    80002550:	dca43c23          	sd	a0,-552(s0)
    80002554:	00179693          	slli	a3,a5,0x1
    80002558:	96be                	add	a3,a3,a5
    8000255a:	0692                	slli	a3,a3,0x4
    8000255c:	039787b3          	mul	a5,a5,s9
    80002560:	dad43c23          	sd	a3,-584(s0)
    80002564:	03cb86b3          	mul	a3,s7,t3
    80002568:	e0f43c23          	sd	a5,-488(s0)
    8000256c:	8bda                	mv	s7,s6
    8000256e:	8b52                	mv	s6,s4
    80002570:	8a66                	mv	s4,s9
    80002572:	8cd6                	mv	s9,s5
    80002574:	8aea                	mv	s5,s10
    80002576:	02e55633          	divu	a2,a0,a4
    8000257a:	00d487b3          	add	a5,s1,a3
    8000257e:	dcf43423          	sd	a5,-568(s0)
    80002582:	02e577b3          	remu	a5,a0,a4
    80002586:	00261593          	slli	a1,a2,0x2
    8000258a:	962e                	add	a2,a2,a1
    8000258c:	f0c43423          	sd	a2,-248(s0)
    80002590:	060e                	slli	a2,a2,0x3
    80002592:	e8c43423          	sd	a2,-376(s0)
    80002596:	e0f43823          	sd	a5,-496(s0)
    8000259a:	ef043783          	ld	a5,-272(s0)
    8000259e:	e399                	bnez	a5,800025a4 <mm_cb+0x470>
    800025a0:	18d0106f          	j	80003f2c <mm_cb+0x1df8>
    800025a4:	e9843703          	ld	a4,-360(s0)
    800025a8:	47e1                	li	a5,24
    800025aa:	ec843683          	ld	a3,-312(s0)
    800025ae:	02f757b3          	divu	a5,a4,a5
    800025b2:	e6043703          	ld	a4,-416(s0)
    800025b6:	df443023          	sd	s4,-544(s0)
    800025ba:	ea043423          	sd	zero,-344(s0)
    800025be:	9736                	add	a4,a4,a3
    800025c0:	e4e43823          	sd	a4,-432(s0)
    800025c4:	dc843703          	ld	a4,-568(s0)
    800025c8:	8a4e                	mv	s4,s3
    800025ca:	ece43023          	sd	a4,-320(s0)
    800025ce:	e3843703          	ld	a4,-456(s0)
    800025d2:	02e78733          	mul	a4,a5,a4
    800025d6:	f2e43423          	sd	a4,-216(s0)
    800025da:	ed043703          	ld	a4,-304(s0)
    800025de:	02e787b3          	mul	a5,a5,a4
    800025e2:	e4f43023          	sd	a5,-448(s0)
    800025e6:	f1043783          	ld	a5,-240(s0)
    800025ea:	44078663          	beqz	a5,80002a36 <mm_cb+0x902>
    800025ee:	ea843783          	ld	a5,-344(s0)
    800025f2:	4765                	li	a4,25
    800025f4:	e5943423          	sd	s9,-440(s0)
    800025f8:	02e7d7b3          	divu	a5,a5,a4
    800025fc:	e4043703          	ld	a4,-448(s0)
    80002600:	e1743423          	sd	s7,-504(s0)
    80002604:	db643023          	sd	s6,-608(s0)
    80002608:	e2843c83          	ld	s9,-472(s0)
    8000260c:	e3043b83          	ld	s7,-464(s0)
    80002610:	ed043b03          	ld	s6,-304(s0)
    80002614:	4681                	li	a3,0
    80002616:	d9543c23          	sd	s5,-616(s0)
    8000261a:	d9443823          	sd	s4,-624(s0)
    8000261e:	00e78d33          	add	s10,a5,a4
    80002622:	038d0d33          	mul	s10,s10,s8
    80002626:	eef43423          	sd	a5,-280(s0)
    8000262a:	eb043783          	ld	a5,-336(s0)
    8000262e:	9d3e                	add	s10,s10,a5
    80002630:	018d07b3          	add	a5,s10,s8
    80002634:	eef43023          	sd	a5,-288(s0)
    80002638:	0c8d0793          	addi	a5,s10,200
    8000263c:	ecf43c23          	sd	a5,-296(s0)
    80002640:	de843783          	ld	a5,-536(s0)
    80002644:	00fd09b3          	add	s3,s10,a5
    80002648:	8d36                	mv	s10,a3
    8000264a:	47e1                	li	a5,24
    8000264c:	02fd57b3          	divu	a5,s10,a5
    80002650:	f2843703          	ld	a4,-216(s0)
    80002654:	ed843a83          	ld	s5,-296(s0)
    80002658:	036784b3          	mul	s1,a5,s6
    8000265c:	97ba                	add	a5,a5,a4
    8000265e:	00379913          	slli	s2,a5,0x3
    80002662:	993e                	add	s2,s2,a5
    80002664:	ee843783          	ld	a5,-280(s0)
    80002668:	0926                	slli	s2,s2,0x9
    8000266a:	995e                	add	s2,s2,s7
    8000266c:	8dca                	mv	s11,s2
    8000266e:	94be                	add	s1,s1,a5
    80002670:	038484b3          	mul	s1,s1,s8
    80002674:	94e6                	add	s1,s1,s9
    80002676:	0c848a13          	addi	s4,s1,200
    8000267a:	f38a8693          	addi	a3,s5,-200
    8000267e:	8626                	mv	a2,s1
    80002680:	0006bb07          	fld	fs6,0(a3)
    80002684:	0086ba87          	fld	fs5,8(a3)
    80002688:	0106ba07          	fld	fs4,16(a3)
    8000268c:	0186b987          	fld	fs3,24(a3)
    80002690:	3288                	fld	fa0,32(a3)
    80002692:	0c86bb87          	fld	fs7,200(a3)
    80002696:	0d06b907          	fld	fs2,208(a3)
    8000269a:	2ee4                	fld	fs1,216(a3)
    8000269c:	32e0                	fld	fs0,224(a3)
    8000269e:	36ec                	fld	fa1,232(a3)
    800026a0:	1906bc07          	fld	fs8,400(a3)
    800026a4:	1986bf87          	fld	ft11,408(a3)
    800026a8:	1a06bf07          	fld	ft10,416(a3)
    800026ac:	1a86be87          	fld	ft9,424(a3)
    800026b0:	1b06b607          	fld	fa2,432(a3)
    800026b4:	2586b387          	fld	ft7,600(a3)
    800026b8:	2606b307          	fld	ft6,608(a3)
    800026bc:	2686b287          	fld	ft5,616(a3)
    800026c0:	2706b187          	fld	ft3,624(a3)
    800026c4:	2786b787          	fld	fa5,632(a3)
    800026c8:	87b2                	mv	a5,a2
    800026ca:	018605b3          	add	a1,a2,s8
    800026ce:	876e                	mv	a4,s11
    800026d0:	00073807          	fld	fa6,0(a4)
    800026d4:	18073e07          	fld	ft8,384(a4)
    800026d8:	24073887          	fld	fa7,576(a4)
    800026dc:	2374                	fld	fa3,192(a4)
    800026de:	3398                	fld	fa4,32(a5)
    800026e0:	0007b087          	fld	ft1,0(a5)
    800026e4:	0087b107          	fld	ft2,8(a5)
    800026e8:	0107b207          	fld	ft4,16(a5)
    800026ec:	0187b007          	fld	ft0,24(a5)
    800026f0:	b2187b43          	fmadd.d	fs6,fa6,ft1,fs6
    800026f4:	aa287ac3          	fmadd.d	fs5,fa6,ft2,fs5
    800026f8:	a2487a43          	fmadd.d	fs4,fa6,ft4,fs4
    800026fc:	9a0879c3          	fmadd.d	fs3,fa6,ft0,fs3
    80002700:	52e87543          	fmadd.d	fa0,fa6,fa4,fa0
    80002704:	bad0fbc3          	fmadd.d	fs7,ft1,fa3,fs7
    80002708:	7b177843          	fmadd.d	fa6,fa4,fa7,fa5
    8000270c:	92d17943          	fmadd.d	fs2,ft2,fa3,fs2
    80002710:	4ad274c3          	fmadd.d	fs1,ft4,fa3,fs1
    80002714:	42d07443          	fmadd.d	fs0,ft0,fa3,fs0
    80002718:	c3c0fc43          	fmadd.d	fs8,ft1,ft8,fs8
    8000271c:	5ad776c3          	fmadd.d	fa3,fa4,fa3,fa1
    80002720:	fbc17fc3          	fmadd.d	ft11,ft2,ft8,ft11
    80002724:	f3c27f43          	fmadd.d	ft10,ft4,ft8,ft10
    80002728:	ebc07ec3          	fmadd.d	ft9,ft0,ft8,ft9
    8000272c:	63c77643          	fmadd.d	fa2,fa4,ft8,fa2
    80002730:	3b10f0c3          	fmadd.d	ft1,ft1,fa7,ft7
    80002734:	33117143          	fmadd.d	ft2,ft2,fa7,ft6
    80002738:	2b127243          	fmadd.d	ft4,ft4,fa7,ft5
    8000273c:	1b107043          	fmadd.d	ft0,ft0,fa7,ft3
    80002740:	24873787          	fld	fa5,584(a4)
    80002744:	00873887          	fld	fa7,8(a4)
    80002748:	276c                	fld	fa1,200(a4)
    8000274a:	18873e07          	fld	ft8,392(a4)
    8000274e:	0c87b387          	fld	ft7,200(a5)
    80002752:	0d07b307          	fld	ft6,208(a5)
    80002756:	0d87b287          	fld	ft5,216(a5)
    8000275a:	0e07b187          	fld	ft3,224(a5)
    8000275e:	37f8                	fld	fa4,232(a5)
    80002760:	b278fb43          	fmadd.d	fs6,fa7,ft7,fs6
    80002764:	aa68fac3          	fmadd.d	fs5,fa7,ft6,fs5
    80002768:	52e8f543          	fmadd.d	fa0,fa7,fa4,fa0
    8000276c:	82f77843          	fmadd.d	fa6,fa4,fa5,fa6
    80002770:	a258fa43          	fmadd.d	fs4,fa7,ft5,fs4
    80002774:	9a38f9c3          	fmadd.d	fs3,fa7,ft3,fs3
    80002778:	bab3fbc3          	fmadd.d	fs7,ft7,fa1,fs7
    8000277c:	92b37943          	fmadd.d	fs2,ft6,fa1,fs2
    80002780:	4ab2f4c3          	fmadd.d	fs1,ft5,fa1,fs1
    80002784:	42b1f443          	fmadd.d	fs0,ft3,fa1,fs0
    80002788:	c3c3fc43          	fmadd.d	fs8,ft7,ft8,fs8
    8000278c:	6ab775c3          	fmadd.d	fa1,fa4,fa1,fa3
    80002790:	fbc37fc3          	fmadd.d	ft11,ft6,ft8,ft11
    80002794:	f3c2ff43          	fmadd.d	ft10,ft5,ft8,ft10
    80002798:	ebc1fec3          	fmadd.d	ft9,ft3,ft8,ft9
    8000279c:	63c77643          	fmadd.d	fa2,fa4,ft8,fa2
    800027a0:	0af3f0c3          	fmadd.d	ft1,ft7,fa5,ft1
    800027a4:	12f37143          	fmadd.d	ft2,ft6,fa5,ft2
    800027a8:	22f2f243          	fmadd.d	ft4,ft5,fa5,ft4
    800027ac:	02f1f043          	fmadd.d	ft0,ft3,fa5,ft0
    800027b0:	19073707          	fld	fa4,400(a4)
    800027b4:	0d073187          	fld	ft3,208(a4)
    800027b8:	01073887          	fld	fa7,16(a4)
    800027bc:	25073787          	fld	fa5,592(a4)
    800027c0:	1907b387          	fld	ft7,400(a5)
    800027c4:	1987b307          	fld	ft6,408(a5)
    800027c8:	1a07b287          	fld	ft5,416(a5)
    800027cc:	1a87bc87          	fld	fs9,424(a5)
    800027d0:	1b07b687          	fld	fa3,432(a5)
    800027d4:	22f2f243          	fmadd.d	ft4,ft5,fa5,ft4
    800027d8:	02fcf043          	fmadd.d	ft0,fs9,fa5,ft0
    800027dc:	b278fb43          	fmadd.d	fs6,fa7,ft7,fs6
    800027e0:	aa68fac3          	fmadd.d	fs5,fa7,ft6,fs5
    800027e4:	a258fa43          	fmadd.d	fs4,fa7,ft5,fs4
    800027e8:	9b98f9c3          	fmadd.d	fs3,fa7,fs9,fs3
    800027ec:	ba33fbc3          	fmadd.d	fs7,ft7,ft3,fs7
    800027f0:	52d8f8c3          	fmadd.d	fa7,fa7,fa3,fa0
    800027f4:	92337943          	fmadd.d	fs2,ft6,ft3,fs2
    800027f8:	4a32f4c3          	fmadd.d	fs1,ft5,ft3,fs1
    800027fc:	423cf443          	fmadd.d	fs0,fs9,ft3,fs0
    80002800:	5a36f5c3          	fmadd.d	fa1,fa3,ft3,fa1
    80002804:	c2e3fc43          	fmadd.d	fs8,ft7,fa4,fs8
    80002808:	fae37fc3          	fmadd.d	ft11,ft6,fa4,ft11
    8000280c:	f2e2ff43          	fmadd.d	ft10,ft5,fa4,ft10
    80002810:	eaecfec3          	fmadd.d	ft9,fs9,fa4,ft9
    80002814:	62e6f643          	fmadd.d	fa2,fa3,fa4,fa2
    80002818:	0af3f0c3          	fmadd.d	ft1,ft7,fa5,ft1
    8000281c:	12f37143          	fmadd.d	ft2,ft6,fa5,ft2
    80002820:	82f6f7c3          	fmadd.d	fa5,fa3,fa5,fa6
    80002824:	2f08                	fld	fa0,24(a4)
    80002826:	2587b387          	fld	ft7,600(a5)
    8000282a:	2607b307          	fld	ft6,608(a5)
    8000282e:	2687b287          	fld	ft5,616(a5)
    80002832:	2707b187          	fld	ft3,624(a5)
    80002836:	2787be07          	fld	ft8,632(a5)
    8000283a:	2f74                	fld	fa3,216(a4)
    8000283c:	19873707          	fld	fa4,408(a4)
    80002840:	25873807          	fld	fa6,600(a4)
    80002844:	b2757b43          	fmadd.d	fs6,fa0,ft7,fs6
    80002848:	aa657ac3          	fmadd.d	fs5,fa0,ft6,fs5
    8000284c:	0b03f0c3          	fmadd.d	ft1,ft7,fa6,ft1
    80002850:	13037143          	fmadd.d	ft2,ft6,fa6,ft2
    80002854:	a2557a43          	fmadd.d	fs4,fa0,ft5,fs4
    80002858:	9a3579c3          	fmadd.d	fs3,fa0,ft3,fs3
    8000285c:	8bc578c3          	fmadd.d	fa7,fa0,ft8,fa7
    80002860:	bad3fbc3          	fmadd.d	fs7,ft7,fa3,fs7
    80002864:	92d37943          	fmadd.d	fs2,ft6,fa3,fs2
    80002868:	4ad2f4c3          	fmadd.d	fs1,ft5,fa3,fs1
    8000286c:	42d1f443          	fmadd.d	fs0,ft3,fa3,fs0
    80002870:	5ade75c3          	fmadd.d	fa1,ft8,fa3,fa1
    80002874:	c2e3fc43          	fmadd.d	fs8,ft7,fa4,fs8
    80002878:	fae37fc3          	fmadd.d	ft11,ft6,fa4,ft11
    8000287c:	f2e2ff43          	fmadd.d	ft10,ft5,fa4,ft10
    80002880:	eae1fec3          	fmadd.d	ft9,ft3,fa4,ft9
    80002884:	62ee7643          	fmadd.d	fa2,ft8,fa4,fa2
    80002888:	2302f2c3          	fmadd.d	ft5,ft5,fa6,ft4
    8000288c:	0301f1c3          	fmadd.d	ft3,ft3,fa6,ft0
    80002890:	7b0e77c3          	fmadd.d	fa5,ft8,fa6,fa5
    80002894:	3308                	fld	fa0,32(a4)
    80002896:	3374                	fld	fa3,224(a4)
    80002898:	1a073707          	fld	fa4,416(a4)
    8000289c:	26073e07          	fld	ft8,608(a4)
    800028a0:	3407b807          	fld	fa6,832(a5)
    800028a4:	3207b387          	fld	ft7,800(a5)
    800028a8:	3287b307          	fld	ft6,808(a5)
    800028ac:	3307bd07          	fld	fs10,816(a5)
    800028b0:	3387bc87          	fld	fs9,824(a5)
    800028b4:	b2757b43          	fmadd.d	fs6,fa0,ft7,fs6
    800028b8:	aa657ac3          	fmadd.d	fs5,fa0,ft6,fs5
    800028bc:	8b0578c3          	fmadd.d	fa7,fa0,fa6,fa7
    800028c0:	bad3fbc3          	fmadd.d	fs7,ft7,fa3,fs7
    800028c4:	92d37943          	fmadd.d	fs2,ft6,fa3,fs2
    800028c8:	5ad875c3          	fmadd.d	fa1,fa6,fa3,fa1
    800028cc:	c2e3fc43          	fmadd.d	fs8,ft7,fa4,fs8
    800028d0:	fae37fc3          	fmadd.d	ft11,ft6,fa4,ft11
    800028d4:	62e87643          	fmadd.d	fa2,fa6,fa4,fa2
    800028d8:	a3a57a43          	fmadd.d	fs4,fa0,fs10,fs4
    800028dc:	9b9579c3          	fmadd.d	fs3,fa0,fs9,fs3
    800028e0:	4add74c3          	fmadd.d	fs1,fs10,fa3,fs1
    800028e4:	42dcf443          	fmadd.d	fs0,fs9,fa3,fs0
    800028e8:	f2ed7f43          	fmadd.d	ft10,fs10,fa4,ft10
    800028ec:	eaecfec3          	fmadd.d	ft9,fs9,fa4,ft9
    800028f0:	0bc3f3c3          	fmadd.d	ft7,ft7,ft8,ft1
    800028f4:	13c37343          	fmadd.d	ft6,ft6,ft8,ft2
    800028f8:	7bc877c3          	fmadd.d	fa5,fa6,ft8,fa5
    800028fc:	2bcd72c3          	fmadd.d	ft5,fs10,ft8,ft5
    80002900:	1bccf1c3          	fmadd.d	ft3,fs9,ft8,ft3
    80002904:	3708                	fld	fa0,40(a4)
    80002906:	3774                	fld	fa3,232(a4)
    80002908:	1a873707          	fld	fa4,424(a4)
    8000290c:	26873807          	fld	fa6,616(a4)
    80002910:	3e87b087          	fld	ft1,1000(a5)
    80002914:	3f07b107          	fld	ft2,1008(a5)
    80002918:	3f87b207          	fld	ft4,1016(a5)
    8000291c:	4007b007          	fld	ft0,1024(a5)
    80002920:	4087bd87          	fld	fs11,1032(a5)
    80002924:	4b078793          	addi	a5,a5,1200
    80002928:	b2157b43          	fmadd.d	fs6,fa0,ft1,fs6
    8000292c:	aa257ac3          	fmadd.d	fs5,fa0,ft2,fs5
    80002930:	a2457a43          	fmadd.d	fs4,fa0,ft4,fs4
    80002934:	9a0579c3          	fmadd.d	fs3,fa0,ft0,fs3
    80002938:	bad0fbc3          	fmadd.d	fs7,ft1,fa3,fs7
    8000293c:	8bb57543          	fmadd.d	fa0,fa0,fs11,fa7
    80002940:	92d17943          	fmadd.d	fs2,ft2,fa3,fs2
    80002944:	4ad274c3          	fmadd.d	fs1,ft4,fa3,fs1
    80002948:	42d07443          	fmadd.d	fs0,ft0,fa3,fs0
    8000294c:	5addf5c3          	fmadd.d	fa1,fs11,fa3,fa1
    80002950:	c2e0fc43          	fmadd.d	fs8,ft1,fa4,fs8
    80002954:	fae17fc3          	fmadd.d	ft11,ft2,fa4,ft11
    80002958:	f2e27f43          	fmadd.d	ft10,ft4,fa4,ft10
    8000295c:	eae07ec3          	fmadd.d	ft9,ft0,fa4,ft9
    80002960:	62edf643          	fmadd.d	fa2,fs11,fa4,fa2
    80002964:	3b00f3c3          	fmadd.d	ft7,ft1,fa6,ft7
    80002968:	33017343          	fmadd.d	ft6,ft2,fa6,ft6
    8000296c:	2b0272c3          	fmadd.d	ft5,ft4,fa6,ft5
    80002970:	1b0071c3          	fmadd.d	ft3,ft0,fa6,ft3
    80002974:	7b0df7c3          	fmadd.d	fa5,fs11,fa6,fa5
    80002978:	03070713          	addi	a4,a4,48
    8000297c:	d4b79ae3          	bne	a5,a1,800026d0 <mm_cb+0x59c>
    80002980:	0166b027          	fsd	fs6,0(a3)
    80002984:	0156b427          	fsd	fs5,8(a3)
    80002988:	0146b827          	fsd	fs4,16(a3)
    8000298c:	0136bc27          	fsd	fs3,24(a3)
    80002990:	b288                	fsd	fa0,32(a3)
    80002992:	0d76b427          	fsd	fs7,200(a3)
    80002996:	0d26b827          	fsd	fs2,208(a3)
    8000299a:	aee4                	fsd	fs1,216(a3)
    8000299c:	b2e0                	fsd	fs0,224(a3)
    8000299e:	b6ec                	fsd	fa1,232(a3)
    800029a0:	1986b827          	fsd	fs8,400(a3)
    800029a4:	19f6bc27          	fsd	ft11,408(a3)
    800029a8:	1be6b027          	fsd	ft10,416(a3)
    800029ac:	1bd6b427          	fsd	ft9,424(a3)
    800029b0:	1ac6b827          	fsd	fa2,432(a3)
    800029b4:	2476bc27          	fsd	ft7,600(a3)
    800029b8:	2666b027          	fsd	ft6,608(a3)
    800029bc:	2656b427          	fsd	ft5,616(a3)
    800029c0:	2636b827          	fsd	ft3,624(a3)
    800029c4:	26f6bc27          	fsd	fa5,632(a3)
    800029c8:	02860613          	addi	a2,a2,40
    800029cc:	02868693          	addi	a3,a3,40
    800029d0:	caca18e3          	bne	s4,a2,80002680 <mm_cb+0x54c>
    800029d4:	47e5                	li	a5,25
    800029d6:	88d6                	mv	a7,s5
    800029d8:	86ee                	mv	a3,s11
    800029da:	e03e                	sd	a5,0(sp)
    800029dc:	4865                	li	a6,25
    800029de:	87d2                	mv	a5,s4
    800029e0:	4761                	li	a4,24
    800029e2:	4661                	li	a2,24
    800029e4:	4581                	li	a1,0
    800029e6:	4511                	li	a0,4
    800029e8:	320a8a93          	addi	s5,s5,800
    800029ec:	e14ff0ef          	jal	ra,80002000 <mm_naive>
    800029f0:	300d8d93          	addi	s11,s11,768
    800029f4:	c95993e3          	bne	s3,s5,8000267a <mm_cb+0x546>
    800029f8:	ee043883          	ld	a7,-288(s0)
    800029fc:	6685                	lui	a3,0x1
    800029fe:	47e5                	li	a5,25
    80002a00:	20068693          	addi	a3,a3,512 # 1200 <buflen.2836+0x1180>
    80002a04:	e03e                	sd	a5,0(sp)
    80002a06:	4865                	li	a6,25
    80002a08:	87a6                	mv	a5,s1
    80002a0a:	4761                	li	a4,24
    80002a0c:	96ca                	add	a3,a3,s2
    80002a0e:	4661                	li	a2,24
    80002a10:	45e5                	li	a1,25
    80002a12:	4501                	li	a0,0
    80002a14:	decff0ef          	jal	ra,80002000 <mm_naive>
    80002a18:	f1043783          	ld	a5,-240(s0)
    80002a1c:	0d61                	addi	s10,s10,24
    80002a1e:	c2fd66e3          	bltu	s10,a5,8000264a <mm_cb+0x516>
    80002a22:	e4843c83          	ld	s9,-440(s0)
    80002a26:	e0843b83          	ld	s7,-504(s0)
    80002a2a:	da043b03          	ld	s6,-608(s0)
    80002a2e:	d9843a83          	ld	s5,-616(s0)
    80002a32:	d9043a03          	ld	s4,-624(s0)
    80002a36:	ec043783          	ld	a5,-320(s0)
    80002a3a:	f1043703          	ld	a4,-240(s0)
    80002a3e:	0c878d93          	addi	s11,a5,200
    80002a42:	f0043783          	ld	a5,-256(s0)
    80002a46:	14f763e3          	bltu	a4,a5,8000338c <mm_cb+0x1258>
    80002a4a:	ea843783          	ld	a5,-344(s0)
    80002a4e:	ef043703          	ld	a4,-272(s0)
    80002a52:	edb43023          	sd	s11,-320(s0)
    80002a56:	07e5                	addi	a5,a5,25
    80002a58:	eaf43423          	sd	a5,-344(s0)
    80002a5c:	b8e7e5e3          	bltu	a5,a4,800025e6 <mm_cb+0x4b2>
    80002a60:	89d2                	mv	s3,s4
    80002a62:	de043a03          	ld	s4,-544(s0)
    80002a66:	e8043703          	ld	a4,-384(s0)
    80002a6a:	df043783          	ld	a5,-528(s0)
    80002a6e:	97ba                	add	a5,a5,a4
    80002a70:	e4f43023          	sd	a5,-448(s0)
    80002a74:	ef043703          	ld	a4,-272(s0)
    80002a78:	eb843783          	ld	a5,-328(s0)
    80002a7c:	68f76ae3          	bltu	a4,a5,80003910 <mm_cb+0x17dc>
    80002a80:	e4043703          	ld	a4,-448(s0)
    80002a84:	e9843783          	ld	a5,-360(s0)
    80002a88:	e8e43023          	sd	a4,-384(s0)
    80002a8c:	e5043703          	ld	a4,-432(s0)
    80002a90:	07e1                	addi	a5,a5,24
    80002a92:	e8f43c23          	sd	a5,-360(s0)
    80002a96:	ece43423          	sd	a4,-312(s0)
    80002a9a:	ef843703          	ld	a4,-264(s0)
    80002a9e:	aee7eee3          	bltu	a5,a4,8000259a <mm_cb+0x466>
    80002aa2:	e7043783          	ld	a5,-400(s0)
    80002aa6:	ef843703          	ld	a4,-264(s0)
    80002aaa:	7cf77463          	bleu	a5,a4,80003272 <mm_cb+0x113e>
    80002aae:	eb843783          	ld	a5,-328(s0)
    80002ab2:	7c078063          	beqz	a5,80003272 <mm_cb+0x113e>
    80002ab6:	e7043783          	ld	a5,-400(s0)
    80002aba:	4661                	li	a2,24
    80002abc:	f2043583          	ld	a1,-224(s0)
    80002ac0:	02c7f633          	remu	a2,a5,a2
    80002ac4:	601c                	ld	a5,0(s0)
    80002ac6:	f1843803          	ld	a6,-232(s0)
    80002aca:	00259713          	slli	a4,a1,0x2
    80002ace:	00379493          	slli	s1,a5,0x3
    80002ad2:	00179693          	slli	a3,a5,0x1
    80002ad6:	00159793          	slli	a5,a1,0x1
    80002ada:	97ae                	add	a5,a5,a1
    80002adc:	00479d13          	slli	s10,a5,0x4
    80002ae0:	00379b93          	slli	s7,a5,0x3
    80002ae4:	079a                	slli	a5,a5,0x6
    80002ae6:	972e                	add	a4,a4,a1
    80002ae8:	dcf43c23          	sd	a5,-552(s0)
    80002aec:	00581793          	slli	a5,a6,0x5
    80002af0:	00371c93          	slli	s9,a4,0x3
    80002af4:	e6843703          	ld	a4,-408(s0)
    80002af8:	e6f43423          	sd	a5,-408(s0)
    80002afc:	601c                	ld	a5,0(s0)
    80002afe:	00043883          	ld	a7,0(s0)
    80002b02:	e8e43423          	sd	a4,-376(s0)
    80002b06:	0796                	slli	a5,a5,0x5
    80002b08:	e6f43823          	sd	a5,-400(s0)
    80002b0c:	ef843783          	ld	a5,-264(s0)
    80002b10:	96c6                	add	a3,a3,a7
    80002b12:	068e                	slli	a3,a3,0x3
    80002b14:	ded43023          	sd	a3,-544(s0)
    80002b18:	00381513          	slli	a0,a6,0x3
    80002b1c:	00559d93          	slli	s11,a1,0x5
    80002b20:	00359393          	slli	t2,a1,0x3
    80002b24:	00459c13          	slli	s8,a1,0x4
    80002b28:	0892                	slli	a7,a7,0x4
    80002b2a:	8b6a                	mv	s6,s10
    80002b2c:	e2a43823          	sd	a0,-464(s0)
    80002b30:	8d62                	mv	s10,s8
    80002b32:	e2943423          	sd	s1,-472(s0)
    80002b36:	e3143023          	sd	a7,-480(s0)
    80002b3a:	ec043023          	sd	zero,-320(s0)
    80002b3e:	8c5e                	mv	s8,s7
    80002b40:	02f48733          	mul	a4,s1,a5
    80002b44:	ffc67693          	andi	a3,a2,-4
    80002b48:	8e15                	sub	a2,a2,a3
    80002b4a:	e0c43823          	sd	a2,-496(s0)
    80002b4e:	ea043603          	ld	a2,-352(s0)
    80002b52:	ecd43c23          	sd	a3,-296(s0)
    80002b56:	9732                	add	a4,a4,a2
    80002b58:	e8e43823          	sd	a4,-368(s0)
    80002b5c:	02d50733          	mul	a4,a0,a3
    80002b60:	02f507b3          	mul	a5,a0,a5
    80002b64:	e0e43423          	sd	a4,-504(s0)
    80002b68:	df843703          	ld	a4,-520(s0)
    80002b6c:	97ba                	add	a5,a5,a4
    80002b6e:	def43823          	sd	a5,-528(s0)
    80002b72:	02d487b3          	mul	a5,s1,a3
    80002b76:	e0f43023          	sd	a5,-512(s0)
    80002b7a:	87ee                	mv	a5,s11
    80002b7c:	8d9e                	mv	s11,t2
    80002b7e:	83be                	mv	t2,a5
    80002b80:	f0043783          	ld	a5,-256(s0)
    80002b84:	6c078263          	beqz	a5,80003248 <mm_cb+0x1114>
    80002b88:	ec043703          	ld	a4,-320(s0)
    80002b8c:	eb843783          	ld	a5,-328(s0)
    80002b90:	8f99                	sub	a5,a5,a4
    80002b92:	ecf43423          	sd	a5,-312(s0)
    80002b96:	4765                	li	a4,25
    80002b98:	00f77563          	bleu	a5,a4,80002ba2 <mm_cb+0xa6e>
    80002b9c:	47e5                	li	a5,25
    80002b9e:	ecf43423          	sd	a5,-312(s0)
    80002ba2:	ec843703          	ld	a4,-312(s0)
    80002ba6:	4695                	li	a3,5
    80002ba8:	e9043603          	ld	a2,-368(s0)
    80002bac:	02d757b3          	divu	a5,a4,a3
    80002bb0:	e0043583          	ld	a1,-512(s0)
    80002bb4:	849e                	mv	s1,t2
    80002bb6:	ea043423          	sd	zero,-344(s0)
    80002bba:	95b2                	add	a1,a1,a2
    80002bbc:	deb43c23          	sd	a1,-520(s0)
    80002bc0:	df043583          	ld	a1,-528(s0)
    80002bc4:	e6b43c23          	sd	a1,-392(s0)
    80002bc8:	e8843583          	ld	a1,-376(s0)
    80002bcc:	eeb43023          	sd	a1,-288(s0)
    80002bd0:	02d77733          	remu	a4,a4,a3
    80002bd4:	e8e43c23          	sd	a4,-360(s0)
    80002bd8:	00279713          	slli	a4,a5,0x2
    80002bdc:	00f70bb3          	add	s7,a4,a5
    80002be0:	417007b3          	neg	a5,s7
    80002be4:	078e                	slli	a5,a5,0x3
    80002be6:	e2f43c23          	sd	a5,-456(s0)
    80002bea:	e2843783          	ld	a5,-472(s0)
    80002bee:	003b9713          	slli	a4,s7,0x3
    80002bf2:	00e606b3          	add	a3,a2,a4
    80002bf6:	8f99                	sub	a5,a5,a4
    80002bf8:	e4f43023          	sd	a5,-448(s0)
    80002bfc:	e2043783          	ld	a5,-480(s0)
    80002c00:	e0e43c23          	sd	a4,-488(s0)
    80002c04:	ded43423          	sd	a3,-536(s0)
    80002c08:	8f99                	sub	a5,a5,a4
    80002c0a:	e4f43423          	sd	a5,-440(s0)
    80002c0e:	de043783          	ld	a5,-544(s0)
    80002c12:	83de                	mv	t2,s7
    80002c14:	8f99                	sub	a5,a5,a4
    80002c16:	e4f43823          	sd	a5,-432(s0)
    80002c1a:	ea843703          	ld	a4,-344(s0)
    80002c1e:	f0043783          	ld	a5,-256(s0)
    80002c22:	8f99                	sub	a5,a5,a4
    80002c24:	eef43423          	sd	a5,-280(s0)
    80002c28:	4761                	li	a4,24
    80002c2a:	00f77563          	bleu	a5,a4,80002c34 <mm_cb+0xb00>
    80002c2e:	47e1                	li	a5,24
    80002c30:	eef43423          	sd	a5,-280(s0)
    80002c34:	ed843783          	ld	a5,-296(s0)
    80002c38:	5a078763          	beqz	a5,800031e6 <mm_cb+0x10b2>
    80002c3c:	e3043783          	ld	a5,-464(s0)
    80002c40:	e7843983          	ld	s3,-392(s0)
    80002c44:	ee843703          	ld	a4,-280(s0)
    80002c48:	ee043603          	ld	a2,-288(s0)
    80002c4c:	01378a33          	add	s4,a5,s3
    80002c50:	01478ab3          	add	s5,a5,s4
    80002c54:	01578bb3          	add	s7,a5,s5
    80002c58:	de843783          	ld	a5,-536(s0)
    80002c5c:	00371693          	slli	a3,a4,0x3
    80002c60:	e4d43c23          	sd	a3,-424(s0)
    80002c64:	f0f43823          	sd	a5,-240(s0)
    80002c68:	4799                	li	a5,6
    80002c6a:	02f757b3          	divu	a5,a4,a5
    80002c6e:	e1843683          	ld	a3,-488(s0)
    80002c72:	f0043423          	sd	zero,-248(s0)
    80002c76:	96b2                	add	a3,a3,a2
    80002c78:	e8d43023          	sd	a3,-384(s0)
    80002c7c:	00179913          	slli	s2,a5,0x1
    80002c80:	993e                	add	s2,s2,a5
    80002c82:	036787b3          	mul	a5,a5,s6
    80002c86:	0912                	slli	s2,s2,0x4
    80002c88:	e6f43023          	sd	a5,-416(s0)
    80002c8c:	4e038f63          	beqz	t2,8000318a <mm_cb+0x1056>
    80002c90:	e5843783          	ld	a5,-424(s0)
    80002c94:	e3843703          	ld	a4,-456(s0)
    80002c98:	ee043f83          	ld	t6,-288(s0)
    80002c9c:	01378eb3          	add	t4,a5,s3
    80002ca0:	f1043783          	ld	a5,-240(s0)
    80002ca4:	e6043083          	ld	ra,-416(s0)
    80002ca8:	01390e33          	add	t3,s2,s3
    80002cac:	00f70333          	add	t1,a4,a5
    80002cb0:	e4043703          	ld	a4,-448(s0)
    80002cb4:	4281                	li	t0,0
    80002cb6:	00f708b3          	add	a7,a4,a5
    80002cba:	e4843703          	ld	a4,-440(s0)
    80002cbe:	00f70833          	add	a6,a4,a5
    80002cc2:	e5043703          	ld	a4,-432(s0)
    80002cc6:	00f70533          	add	a0,a4,a5
    80002cca:	87fe                	mv	a5,t6
    80002ccc:	00033a87          	fld	fs5,0(t1)
    80002cd0:	00833a07          	fld	fs4,8(t1)
    80002cd4:	01033987          	fld	fs3,16(t1)
    80002cd8:	01833907          	fld	fs2,24(t1)
    80002cdc:	02033007          	fld	ft0,32(t1)
    80002ce0:	0008b487          	fld	fs1,0(a7)
    80002ce4:	0088b407          	fld	fs0,8(a7)
    80002ce8:	0108bf87          	fld	ft11,16(a7)
    80002cec:	0188bf07          	fld	ft10,24(a7)
    80002cf0:	0208b587          	fld	fa1,32(a7)
    80002cf4:	00083e07          	fld	ft8,0(a6)
    80002cf8:	00883b87          	fld	fs7,8(a6)
    80002cfc:	01083e87          	fld	ft9,16(a6)
    80002d00:	01883287          	fld	ft5,24(a6)
    80002d04:	02083607          	fld	fa2,32(a6)
    80002d08:	00053207          	fld	ft4,0(a0)
    80002d0c:	00853187          	fld	ft3,8(a0)
    80002d10:	01053107          	fld	ft2,16(a0)
    80002d14:	2d14                	fld	fa3,24(a0)
    80002d16:	311c                	fld	fa5,32(a0)
    80002d18:	37c9fc63          	bleu	t3,s3,80003090 <mm_cb+0xf5c>
    80002d1c:	235a8553          	fmv.d	fa0,fs5
    80002d20:	22840dd3          	fmv.d	fs11,fs0
    80002d24:	23ff8cd3          	fmv.d	fs9,ft11
    80002d28:	23de8b53          	fmv.d	fs6,ft9
    80002d2c:	22528c53          	fmv.d	fs8,ft5
    80002d30:	22420ad3          	fmv.d	fs5,ft4
    80002d34:	22f788d3          	fmv.d	fa7,fa5
    80002d38:	23ef0253          	fmv.d	ft4,ft10
    80002d3c:	23398453          	fmv.d	fs0,fs3
    80002d40:	23290fd3          	fmv.d	ft11,fs2
    80002d44:	237b8ed3          	fmv.d	ft9,fs7
    80002d48:	23ce02d3          	fmv.d	ft5,ft8
    80002d4c:	22c60753          	fmv.d	fa4,fa2
    80002d50:	22948f53          	fmv.d	ft10,fs1
    80002d54:	22318353          	fmv.d	ft6,ft3
    80002d58:	222103d3          	fmv.d	ft7,ft2
    80002d5c:	22d68853          	fmv.d	fa6,fa3
    80002d60:	234a07d3          	fmv.d	fa5,fs4
    80002d64:	8f1e                	mv	t5,t2
    80002d66:	f2143423          	sd	ra,-216(s0)
    80002d6a:	85de                	mv	a1,s7
    80002d6c:	8656                	mv	a2,s5
    80002d6e:	86d2                	mv	a3,s4
    80002d70:	874e                	mv	a4,s3
    80002d72:	8096                	mv	ra,t0
    80002d74:	83f6                	mv	t2,t4
    80002d76:	00073e07          	fld	ft8,0(a4)
    80002d7a:	0006b907          	fld	fs2,0(a3)
    80002d7e:	00063187          	fld	ft3,0(a2)
    80002d82:	0005bd07          	fld	fs10,0(a1) # ffffffffffffe000 <__global_pointer$+0xffffffff7fff8778>
    80002d86:	0087b107          	fld	ft2,8(a5)
    80002d8a:	0107bb87          	fld	fs7,16(a5)
    80002d8e:	2f90                	fld	fa2,24(a5)
    80002d90:	3394                	fld	fa3,32(a5)
    80002d92:	0007b087          	fld	ft1,0(a5)
    80002d96:	cb2bf4c3          	fmadd.d	fs1,fs7,fs2,fs9
    80002d9a:	7a2e77c3          	fmadd.d	fa5,ft8,ft2,fa5
    80002d9e:	521e7543          	fmadd.d	fa0,ft8,ft1,fa0
    80002da2:	437e7443          	fmadd.d	fs0,ft8,fs7,fs0
    80002da6:	face7fc3          	fmadd.d	ft11,ft8,fa2,ft11
    80002daa:	02de7043          	fmadd.d	ft0,ft8,fa3,ft0
    80002dae:	f320ff43          	fmadd.d	ft10,ft1,fs2,ft10
    80002db2:	db217e43          	fmadd.d	ft8,ft2,fs2,fs11
    80002db6:	23267243          	fmadd.d	ft4,fa2,fs2,ft4
    80002dba:	5b26f5c3          	fmadd.d	fa1,fa3,fs2,fa1
    80002dbe:	2a30f2c3          	fmadd.d	ft5,ft1,ft3,ft5
    80002dc2:	ea317ec3          	fmadd.d	ft9,ft2,ft3,ft9
    80002dc6:	b23bfb43          	fmadd.d	fs6,fs7,ft3,fs6
    80002dca:	c2367c43          	fmadd.d	fs8,fa2,ft3,fs8
    80002dce:	7236f743          	fmadd.d	fa4,fa3,ft3,fa4
    80002dd2:	aba0f0c3          	fmadd.d	ft1,ft1,fs10,fs5
    80002dd6:	33a17343          	fmadd.d	ft6,ft2,fs10,ft6
    80002dda:	3babf3c3          	fmadd.d	ft7,fs7,fs10,ft7
    80002dde:	83a67843          	fmadd.d	fa6,fa2,fs10,fa6
    80002de2:	8ba6f8c3          	fmadd.d	fa7,fa3,fs10,fa7
    80002de6:	00fd8eb3          	add	t4,s11,a5
    80002dea:	2710                	fld	fa2,8(a4)
    80002dec:	2694                	fld	fa3,8(a3)
    80002dee:	00863107          	fld	ft2,8(a2)
    80002df2:	0085b907          	fld	fs2,8(a1)
    80002df6:	000eb187          	fld	ft3,0(t4)
    80002dfa:	008ebb87          	fld	fs7,8(t4)
    80002dfe:	010eba87          	fld	fs5,16(t4)
    80002e02:	018eba07          	fld	fs4,24(t4)
    80002e06:	020eb987          	fld	fs3,32(t4)
    80002e0a:	0b21f0c3          	fmadd.d	ft1,ft3,fs2,ft1
    80002e0e:	52367543          	fmadd.d	fa0,fa2,ft3,fa0
    80002e12:	7b7677c3          	fmadd.d	fa5,fa2,fs7,fa5
    80002e16:	43567443          	fmadd.d	fs0,fa2,fs5,fs0
    80002e1a:	fb467fc3          	fmadd.d	ft11,fa2,fs4,ft11
    80002e1e:	03367043          	fmadd.d	ft0,fa2,fs3,ft0
    80002e22:	f2d1ff43          	fmadd.d	ft10,ft3,fa3,ft10
    80002e26:	e2dbfe43          	fmadd.d	ft8,fs7,fa3,ft8
    80002e2a:	4adaf4c3          	fmadd.d	fs1,fs5,fa3,fs1
    80002e2e:	22da7243          	fmadd.d	ft4,fs4,fa3,ft4
    80002e32:	5ad9f5c3          	fmadd.d	fa1,fs3,fa3,fa1
    80002e36:	2a21f2c3          	fmadd.d	ft5,ft3,ft2,ft5
    80002e3a:	ea2bfec3          	fmadd.d	ft9,fs7,ft2,ft9
    80002e3e:	b22afb43          	fmadd.d	fs6,fs5,ft2,fs6
    80002e42:	c22a7c43          	fmadd.d	fs8,fs4,ft2,fs8
    80002e46:	7229f743          	fmadd.d	fa4,fs3,ft2,fa4
    80002e4a:	332bf343          	fmadd.d	ft6,fs7,fs2,ft6
    80002e4e:	3b2af3c3          	fmadd.d	ft7,fs5,fs2,ft7
    80002e52:	832a7843          	fmadd.d	fa6,fs4,fs2,fa6
    80002e56:	8b29f8c3          	fmadd.d	fa7,fs3,fs2,fa7
    80002e5a:	00fd0eb3          	add	t4,s10,a5
    80002e5e:	2b10                	fld	fa2,16(a4)
    80002e60:	2a94                	fld	fa3,16(a3)
    80002e62:	01063107          	fld	ft2,16(a2)
    80002e66:	0105bb87          	fld	fs7,16(a1)
    80002e6a:	008eb987          	fld	fs3,8(t4)
    80002e6e:	010eb907          	fld	fs2,16(t4)
    80002e72:	018eb187          	fld	ft3,24(t4)
    80002e76:	020ebc87          	fld	fs9,32(t4)
    80002e7a:	000eba87          	fld	fs5,0(t4)
    80002e7e:	7b3677c3          	fmadd.d	fa5,fa2,fs3,fa5
    80002e82:	722cf743          	fmadd.d	fa4,fs9,ft2,fa4
    80002e86:	8b7cf8c3          	fmadd.d	fa7,fs9,fs7,fa7
    80002e8a:	53567543          	fmadd.d	fa0,fa2,fs5,fa0
    80002e8e:	43267443          	fmadd.d	fs0,fa2,fs2,fs0
    80002e92:	fa367fc3          	fmadd.d	ft11,fa2,ft3,ft11
    80002e96:	03967043          	fmadd.d	ft0,fa2,fs9,ft0
    80002e9a:	f2daff43          	fmadd.d	ft10,fs5,fa3,ft10
    80002e9e:	e2d9fe43          	fmadd.d	ft8,fs3,fa3,ft8
    80002ea2:	4ad974c3          	fmadd.d	fs1,fs2,fa3,fs1
    80002ea6:	22d1f243          	fmadd.d	ft4,ft3,fa3,ft4
    80002eaa:	5adcf5c3          	fmadd.d	fa1,fs9,fa3,fa1
    80002eae:	2a2af2c3          	fmadd.d	ft5,fs5,ft2,ft5
    80002eb2:	ea29fec3          	fmadd.d	ft9,fs3,ft2,ft9
    80002eb6:	0b7afac3          	fmadd.d	fs5,fs5,fs7,ft1
    80002eba:	b2297b43          	fmadd.d	fs6,fs2,ft2,fs6
    80002ebe:	c221fc43          	fmadd.d	fs8,ft3,ft2,fs8
    80002ec2:	3379f343          	fmadd.d	ft6,fs3,fs7,ft6
    80002ec6:	3b7973c3          	fmadd.d	ft7,fs2,fs7,ft7
    80002eca:	8371f843          	fmadd.d	fa6,ft3,fs7,fa6
    80002ece:	01878eb3          	add	t4,a5,s8
    80002ed2:	2f10                	fld	fa2,24(a4)
    80002ed4:	008eb987          	fld	fs3,8(t4)
    80002ed8:	010eb907          	fld	fs2,16(t4)
    80002edc:	018eb187          	fld	ft3,24(t4)
    80002ee0:	000eba07          	fld	fs4,0(t4)
    80002ee4:	020ebb87          	fld	fs7,32(t4)
    80002ee8:	2e94                	fld	fa3,24(a3)
    80002eea:	01863107          	fld	ft2,24(a2)
    80002eee:	0185b087          	fld	ft1,24(a1)
    80002ef2:	03767043          	fmadd.d	ft0,fa2,fs7,ft0
    80002ef6:	5adbf5c3          	fmadd.d	fa1,fs7,fa3,fa1
    80002efa:	3219f343          	fmadd.d	ft6,fs3,ft1,ft6
    80002efe:	3a1973c3          	fmadd.d	ft7,fs2,ft1,ft7
    80002f02:	8211f843          	fmadd.d	fa6,ft3,ft1,fa6
    80002f06:	53467543          	fmadd.d	fa0,fa2,fs4,fa0
    80002f0a:	7b3677c3          	fmadd.d	fa5,fa2,fs3,fa5
    80002f0e:	43267443          	fmadd.d	fs0,fa2,fs2,fs0
    80002f12:	fa367fc3          	fmadd.d	ft11,fa2,ft3,ft11
    80002f16:	f2da7f43          	fmadd.d	ft10,fs4,fa3,ft10
    80002f1a:	e2d9fe43          	fmadd.d	ft8,fs3,fa3,ft8
    80002f1e:	4ad974c3          	fmadd.d	fs1,fs2,fa3,fs1
    80002f22:	22d1f243          	fmadd.d	ft4,ft3,fa3,ft4
    80002f26:	2a2a72c3          	fmadd.d	ft5,fs4,ft2,ft5
    80002f2a:	ea29fec3          	fmadd.d	ft9,fs3,ft2,ft9
    80002f2e:	b2297b43          	fmadd.d	fs6,fs2,ft2,fs6
    80002f32:	c221fc43          	fmadd.d	fs8,ft3,ft2,fs8
    80002f36:	aa1a7a43          	fmadd.d	fs4,fs4,ft1,fs5
    80002f3a:	722bf143          	fmadd.d	ft2,fs7,ft2,fa4
    80002f3e:	8a1bf0c3          	fmadd.d	ft1,fs7,ft1,fa7
    80002f42:	00f48eb3          	add	t4,s1,a5
    80002f46:	3218                	fld	fa4,32(a2)
    80002f48:	0205b187          	fld	ft3,32(a1)
    80002f4c:	3310                	fld	fa2,32(a4)
    80002f4e:	3294                	fld	fa3,32(a3)
    80002f50:	020eb887          	fld	fa7,32(t4)
    80002f54:	000eba87          	fld	fs5,0(t4)
    80002f58:	008eb907          	fld	fs2,8(t4)
    80002f5c:	010eb987          	fld	fs3,16(t4)
    80002f60:	018ebb87          	fld	fs7,24(t4)
    80002f64:	53567543          	fmadd.d	fa0,fa2,fs5,fa0
    80002f68:	7b2677c3          	fmadd.d	fa5,fa2,fs2,fa5
    80002f6c:	43367443          	fmadd.d	fs0,fa2,fs3,fs0
    80002f70:	fb767fc3          	fmadd.d	ft11,fa2,fs7,ft11
    80002f74:	f2daff43          	fmadd.d	ft10,fs5,fa3,ft10
    80002f78:	03167643          	fmadd.d	fa2,fa2,fa7,ft0
    80002f7c:	e2d97e43          	fmadd.d	ft8,fs2,fa3,ft8
    80002f80:	4ad9fcc3          	fmadd.d	fs9,fs3,fa3,fs1
    80002f84:	22dbf243          	fmadd.d	ft4,fs7,fa3,ft4
    80002f88:	2aeaf2c3          	fmadd.d	ft5,fs5,fa4,ft5
    80002f8c:	5ad8f6c3          	fmadd.d	fa3,fa7,fa3,fa1
    80002f90:	eae97ec3          	fmadd.d	ft9,fs2,fa4,ft9
    80002f94:	b2e9fb43          	fmadd.d	fs6,fs3,fa4,fs6
    80002f98:	c2ebfc43          	fmadd.d	fs8,fs7,fa4,fs8
    80002f9c:	12e8f143          	fmadd.d	ft2,fa7,fa4,ft2
    80002fa0:	32397943          	fmadd.d	fs2,fs2,ft3,ft6
    80002fa4:	3a39f9c3          	fmadd.d	fs3,fs3,ft3,ft7
    80002fa8:	823bfbc3          	fmadd.d	fs7,fs7,ft3,fa6
    80002fac:	0a38f0c3          	fmadd.d	ft1,fa7,ft3,ft1
    80002fb0:	a23afac3          	fmadd.d	fs5,fs5,ft3,fs4
    80002fb4:	01978eb3          	add	t4,a5,s9
    80002fb8:	02873007          	fld	ft0,40(a4)
    80002fbc:	368c                	fld	fa1,40(a3)
    80002fbe:	3618                	fld	fa4,40(a2)
    80002fc0:	0285bd07          	fld	fs10,40(a1)
    80002fc4:	000eb187          	fld	ft3,0(t4)
    80002fc8:	008eb307          	fld	ft6,8(t4)
    80002fcc:	010eb387          	fld	ft7,16(t4)
    80002fd0:	018eb807          	fld	fa6,24(t4)
    80002fd4:	020eb887          	fld	fa7,32(t4)
    80002fd8:	03070713          	addi	a4,a4,48
    80002fdc:	7a6077c3          	fmadd.d	fa5,ft0,ft6,fa5
    80002fe0:	42707443          	fmadd.d	fs0,ft0,ft7,fs0
    80002fe4:	fb007fc3          	fmadd.d	ft11,ft0,fa6,ft11
    80002fe8:	e2b37dc3          	fmadd.d	fs11,ft6,fa1,ft8
    80002fec:	cab3fcc3          	fmadd.d	fs9,ft7,fa1,fs9
    80002ff0:	22b87243          	fmadd.d	ft4,fa6,fa1,ft4
    80002ff4:	eae37ec3          	fmadd.d	ft9,ft6,fa4,ft9
    80002ff8:	b2e3fb43          	fmadd.d	fs6,ft7,fa4,fs6
    80002ffc:	c2e87c43          	fmadd.d	fs8,fa6,fa4,fs8
    80003000:	52307543          	fmadd.d	fa0,ft0,ft3,fa0
    80003004:	f2b1ff43          	fmadd.d	ft10,ft3,fa1,ft10
    80003008:	63107043          	fmadd.d	ft0,ft0,fa7,fa2
    8000300c:	6ab8f5c3          	fmadd.d	fa1,fa7,fa1,fa3
    80003010:	2ae1f2c3          	fmadd.d	ft5,ft3,fa4,ft5
    80003014:	aba1fac3          	fmadd.d	fs5,ft3,fs10,fs5
    80003018:	12e8f743          	fmadd.d	fa4,fa7,fa4,ft2
    8000301c:	93a37343          	fmadd.d	ft6,ft6,fs10,fs2
    80003020:	9ba3f3c3          	fmadd.d	ft7,ft7,fs10,fs3
    80003024:	bba87843          	fmadd.d	fa6,fa6,fs10,fs7
    80003028:	0ba8f8c3          	fmadd.d	fa7,fa7,fs10,ft1
    8000302c:	97da                	add	a5,a5,s6
    8000302e:	03068693          	addi	a3,a3,48
    80003032:	03060613          	addi	a2,a2,48
    80003036:	03058593          	addi	a1,a1,48
    8000303a:	d3c76ee3          	bltu	a4,t3,80002d76 <mm_cb+0xc42>
    8000303e:	22f78a53          	fmv.d	fs4,fa5
    80003042:	228409d3          	fmv.d	fs3,fs0
    80003046:	23ff8953          	fmv.d	fs2,ft11
    8000304a:	23ef04d3          	fmv.d	fs1,ft10
    8000304e:	22528e53          	fmv.d	ft8,ft5
    80003052:	22420f53          	fmv.d	ft10,ft4
    80003056:	23de8bd3          	fmv.d	fs7,ft9
    8000305a:	235a8253          	fmv.d	ft4,fs5
    8000305e:	8286                	mv	t0,ra
    80003060:	23bd8453          	fmv.d	fs0,fs11
    80003064:	239c8fd3          	fmv.d	ft11,fs9
    80003068:	236b0ed3          	fmv.d	ft9,fs6
    8000306c:	238c02d3          	fmv.d	ft5,fs8
    80003070:	22e70653          	fmv.d	fa2,fa4
    80003074:	22a50ad3          	fmv.d	fs5,fa0
    80003078:	226301d3          	fmv.d	ft3,ft6
    8000307c:	22738153          	fmv.d	ft2,ft7
    80003080:	230806d3          	fmv.d	fa3,fa6
    80003084:	231887d3          	fmv.d	fa5,fa7
    80003088:	f2843083          	ld	ra,-216(s0)
    8000308c:	8e9e                	mv	t4,t2
    8000308e:	83fa                	mv	t2,t5
    80003090:	01f087b3          	add	a5,ra,t6
    80003094:	09de7863          	bleu	t4,t3,80003124 <mm_cb+0xff0>
    80003098:	014905b3          	add	a1,s2,s4
    8000309c:	01590633          	add	a2,s2,s5
    800030a0:	017906b3          	add	a3,s2,s7
    800030a4:	8772                	mv	a4,t3
    800030a6:	00073307          	fld	ft6,0(a4)
    800030aa:	0005b087          	fld	ft1,0(a1)
    800030ae:	2208                	fld	fa0,0(a2)
    800030b0:	2298                	fld	fa4,0(a3)
    800030b2:	0007bc07          	fld	fs8,0(a5)
    800030b6:	0087bb07          	fld	fs6,8(a5)
    800030ba:	0107b887          	fld	fa7,16(a5)
    800030be:	0187b807          	fld	fa6,24(a5)
    800030c2:	0207b387          	fld	ft7,32(a5)
    800030c6:	0721                	addi	a4,a4,8
    800030c8:	ab837ac3          	fmadd.d	fs5,ft6,fs8,fs5
    800030cc:	a3637a43          	fmadd.d	fs4,ft6,fs6,fs4
    800030d0:	9b1379c3          	fmadd.d	fs3,ft6,fa7,fs3
    800030d4:	93037943          	fmadd.d	fs2,ft6,fa6,fs2
    800030d8:	02737043          	fmadd.d	ft0,ft6,ft7,ft0
    800030dc:	4a1c74c3          	fmadd.d	fs1,fs8,ft1,fs1
    800030e0:	421b7443          	fmadd.d	fs0,fs6,ft1,fs0
    800030e4:	fa18ffc3          	fmadd.d	ft11,fa7,ft1,ft11
    800030e8:	f2187f43          	fmadd.d	ft10,fa6,ft1,ft10
    800030ec:	5a13f5c3          	fmadd.d	fa1,ft7,ft1,fa1
    800030f0:	e2ac7e43          	fmadd.d	ft8,fs8,fa0,ft8
    800030f4:	baab7bc3          	fmadd.d	fs7,fs6,fa0,fs7
    800030f8:	eaa8fec3          	fmadd.d	ft9,fa7,fa0,ft9
    800030fc:	2aa872c3          	fmadd.d	ft5,fa6,fa0,ft5
    80003100:	62a3f643          	fmadd.d	fa2,ft7,fa0,fa2
    80003104:	22ec7243          	fmadd.d	ft4,fs8,fa4,ft4
    80003108:	1aeb71c3          	fmadd.d	ft3,fs6,fa4,ft3
    8000310c:	12e8f143          	fmadd.d	ft2,fa7,fa4,ft2
    80003110:	6ae876c3          	fmadd.d	fa3,fa6,fa4,fa3
    80003114:	7ae3f7c3          	fmadd.d	fa5,ft7,fa4,fa5
    80003118:	97ee                	add	a5,a5,s11
    8000311a:	05a1                	addi	a1,a1,8
    8000311c:	0621                	addi	a2,a2,8
    8000311e:	06a1                	addi	a3,a3,8
    80003120:	f9d763e3          	bltu	a4,t4,800030a6 <mm_cb+0xf72>
    80003124:	01533027          	fsd	fs5,0(t1)
    80003128:	01433427          	fsd	fs4,8(t1)
    8000312c:	01333827          	fsd	fs3,16(t1)
    80003130:	01233c27          	fsd	fs2,24(t1)
    80003134:	02033027          	fsd	ft0,32(t1)
    80003138:	0098b027          	fsd	fs1,0(a7)
    8000313c:	0088b427          	fsd	fs0,8(a7)
    80003140:	01f8b827          	fsd	ft11,16(a7)
    80003144:	01e8bc27          	fsd	ft10,24(a7)
    80003148:	02b8b027          	fsd	fa1,32(a7)
    8000314c:	01c83027          	fsd	ft8,0(a6)
    80003150:	01783427          	fsd	fs7,8(a6)
    80003154:	01d83827          	fsd	ft9,16(a6)
    80003158:	00583c27          	fsd	ft5,24(a6)
    8000315c:	02c83027          	fsd	fa2,32(a6)
    80003160:	00453027          	fsd	ft4,0(a0)
    80003164:	00353427          	fsd	ft3,8(a0)
    80003168:	00253827          	fsd	ft2,16(a0)
    8000316c:	ad14                	fsd	fa3,24(a0)
    8000316e:	b11c                	fsd	fa5,32(a0)
    80003170:	0295                	addi	t0,t0,5
    80003172:	02830313          	addi	t1,t1,40
    80003176:	02888893          	addi	a7,a7,40
    8000317a:	02880813          	addi	a6,a6,40
    8000317e:	02850513          	addi	a0,a0,40
    80003182:	028f8f93          	addi	t6,t6,40
    80003186:	b472e2e3          	bltu	t0,t2,80002cca <mm_cb+0xb96>
    8000318a:	601c                	ld	a5,0(s0)
    8000318c:	f0843303          	ld	t1,-248(s0)
    80003190:	f1843703          	ld	a4,-232(s0)
    80003194:	e03e                	sd	a5,0(sp)
    80003196:	f1043883          	ld	a7,-240(s0)
    8000319a:	e8043783          	ld	a5,-384(s0)
    8000319e:	f2043803          	ld	a6,-224(s0)
    800031a2:	ee843603          	ld	a2,-280(s0)
    800031a6:	e9843583          	ld	a1,-360(s0)
    800031aa:	86ce                	mv	a3,s3
    800031ac:	0311                	addi	t1,t1,4
    800031ae:	4511                	li	a0,4
    800031b0:	f2743423          	sd	t2,-216(s0)
    800031b4:	f0643423          	sd	t1,-248(s0)
    800031b8:	e49fe0ef          	jal	ra,80002000 <mm_naive>
    800031bc:	f1043703          	ld	a4,-240(s0)
    800031c0:	e7043683          	ld	a3,-400(s0)
    800031c4:	e6843783          	ld	a5,-408(s0)
    800031c8:	f2843383          	ld	t2,-216(s0)
    800031cc:	9736                	add	a4,a4,a3
    800031ce:	99be                	add	s3,s3,a5
    800031d0:	f0e43823          	sd	a4,-240(s0)
    800031d4:	9a3e                	add	s4,s4,a5
    800031d6:	9abe                	add	s5,s5,a5
    800031d8:	9bbe                	add	s7,s7,a5
    800031da:	ed843703          	ld	a4,-296(s0)
    800031de:	f0843783          	ld	a5,-248(s0)
    800031e2:	aae7e5e3          	bltu	a5,a4,80002c8c <mm_cb+0xb58>
    800031e6:	e0843703          	ld	a4,-504(s0)
    800031ea:	e7843903          	ld	s2,-392(s0)
    800031ee:	ee043a03          	ld	s4,-288(s0)
    800031f2:	ea843303          	ld	t1,-344(s0)
    800031f6:	012706b3          	add	a3,a4,s2
    800031fa:	6018                	ld	a4,0(s0)
    800031fc:	df843883          	ld	a7,-520(s0)
    80003200:	f2043803          	ld	a6,-224(s0)
    80003204:	e03a                	sd	a4,0(sp)
    80003206:	ee843603          	ld	a2,-280(s0)
    8000320a:	f1843703          	ld	a4,-232(s0)
    8000320e:	ec843583          	ld	a1,-312(s0)
    80003212:	e1043503          	ld	a0,-496(s0)
    80003216:	87d2                	mv	a5,s4
    80003218:	01830993          	addi	s3,t1,24
    8000321c:	f2743423          	sd	t2,-216(s0)
    80003220:	eb343423          	sd	s3,-344(s0)
    80003224:	dddfe0ef          	jal	ra,80002000 <mm_naive>
    80003228:	dd843783          	ld	a5,-552(s0)
    8000322c:	f2843383          	ld	t2,-216(s0)
    80003230:	97d2                	add	a5,a5,s4
    80003232:	eef43023          	sd	a5,-288(s0)
    80003236:	0c090793          	addi	a5,s2,192
    8000323a:	e6f43c23          	sd	a5,-392(s0)
    8000323e:	f0043783          	ld	a5,-256(s0)
    80003242:	9cf9ece3          	bltu	s3,a5,80002c1a <mm_cb+0xae6>
    80003246:	83a6                	mv	t2,s1
    80003248:	e8843703          	ld	a4,-376(s0)
    8000324c:	ec043783          	ld	a5,-320(s0)
    80003250:	0c870713          	addi	a4,a4,200
    80003254:	e8e43423          	sd	a4,-376(s0)
    80003258:	e9043703          	ld	a4,-368(s0)
    8000325c:	07e5                	addi	a5,a5,25
    8000325e:	ecf43023          	sd	a5,-320(s0)
    80003262:	0c870713          	addi	a4,a4,200
    80003266:	e8e43823          	sd	a4,-368(s0)
    8000326a:	eb843703          	ld	a4,-328(s0)
    8000326e:	90e7e9e3          	bltu	a5,a4,80002b80 <mm_cb+0xa4c>
    80003272:	ef843783          	ld	a5,-264(s0)
    80003276:	cbcd                	beqz	a5,80003328 <mm_cb+0x11f4>
    80003278:	601c                	ld	a5,0(s0)
    8000327a:	ea043f03          	ld	t5,-352(s0)
    8000327e:	ef043903          	ld	s2,-272(s0)
    80003282:	00179813          	slli	a6,a5,0x1
    80003286:	6305                	lui	t1,0x1
    80003288:	983e                	add	a6,a6,a5
    8000328a:	2c030293          	addi	t0,t1,704 # 12c0 <buflen.2836+0x1240>
    8000328e:	081a                	slli	a6,a6,0x6
    80003290:	00379513          	slli	a0,a5,0x3
    80003294:	4e01                	li	t3,0
    80003296:	44e1                	li	s1,24
    80003298:	43e5                	li	t2,25
    8000329a:	38030313          	addi	t1,t1,896
    8000329e:	06090f63          	beqz	s2,8000331c <mm_cb+0x11e8>
    800032a2:	029e58b3          	divu	a7,t3,s1
    800032a6:	ed043783          	ld	a5,-304(s0)
    800032aa:	8ffa                	mv	t6,t5
    800032ac:	4e81                	li	t4,0
    800032ae:	02f888b3          	mul	a7,a7,a5
    800032b2:	eb043783          	ld	a5,-336(s0)
    800032b6:	867e                	mv	a2,t6
    800032b8:	027ed5b3          	divu	a1,t4,t2
    800032bc:	95c6                	add	a1,a1,a7
    800032be:	025585b3          	mul	a1,a1,t0
    800032c2:	95be                	add	a1,a1,a5
    800032c4:	0c058693          	addi	a3,a1,192
    800032c8:	959a                	add	a1,a1,t1
    800032ca:	f4068793          	addi	a5,a3,-192
    800032ce:	8732                	mv	a4,a2
    800032d0:	0007b087          	fld	ft1,0(a5)
    800032d4:	0087b007          	fld	ft0,8(a5)
    800032d8:	2b88                	fld	fa0,16(a5)
    800032da:	2f8c                	fld	fa1,24(a5)
    800032dc:	3390                	fld	fa2,32(a5)
    800032de:	3794                	fld	fa3,40(a5)
    800032e0:	3b98                	fld	fa4,48(a5)
    800032e2:	3f9c                	fld	fa5,56(a5)
    800032e4:	00173027          	fsd	ft1,0(a4)
    800032e8:	00073427          	fsd	ft0,8(a4)
    800032ec:	ab08                	fsd	fa0,16(a4)
    800032ee:	af0c                	fsd	fa1,24(a4)
    800032f0:	b310                	fsd	fa2,32(a4)
    800032f2:	b714                	fsd	fa3,40(a4)
    800032f4:	bb18                	fsd	fa4,48(a4)
    800032f6:	bf1c                	fsd	fa5,56(a4)
    800032f8:	04078793          	addi	a5,a5,64
    800032fc:	04070713          	addi	a4,a4,64
    80003300:	fcf698e3          	bne	a3,a5,800032d0 <mm_cb+0x119c>
    80003304:	229c                	fld	fa5,0(a3)
    80003306:	0c868693          	addi	a3,a3,200
    8000330a:	a27c                	fsd	fa5,192(a2)
    8000330c:	962a                	add	a2,a2,a0
    8000330e:	fad59ee3          	bne	a1,a3,800032ca <mm_cb+0x1196>
    80003312:	0ee5                	addi	t4,t4,25
    80003314:	0c8f8f93          	addi	t6,t6,200
    80003318:	f92eede3          	bltu	t4,s2,800032b2 <mm_cb+0x117e>
    8000331c:	ef843783          	ld	a5,-264(s0)
    80003320:	0e61                	addi	t3,t3,24
    80003322:	9f42                	add	t5,t5,a6
    80003324:	f6fe6de3          	bltu	t3,a5,8000329e <mm_cb+0x116a>
    80003328:	d8040113          	addi	sp,s0,-640
    8000332c:	27813083          	ld	ra,632(sp)
    80003330:	27013403          	ld	s0,624(sp)
    80003334:	26813483          	ld	s1,616(sp)
    80003338:	26013903          	ld	s2,608(sp)
    8000333c:	25813983          	ld	s3,600(sp)
    80003340:	25013a03          	ld	s4,592(sp)
    80003344:	24813a83          	ld	s5,584(sp)
    80003348:	24013b03          	ld	s6,576(sp)
    8000334c:	23813b83          	ld	s7,568(sp)
    80003350:	23013c03          	ld	s8,560(sp)
    80003354:	22813c83          	ld	s9,552(sp)
    80003358:	22013d03          	ld	s10,544(sp)
    8000335c:	21813d83          	ld	s11,536(sp)
    80003360:	20813407          	fld	fs0,520(sp)
    80003364:	20013487          	fld	fs1,512(sp)
    80003368:	397e                	fld	fs2,504(sp)
    8000336a:	39de                	fld	fs3,496(sp)
    8000336c:	3a3e                	fld	fs4,488(sp)
    8000336e:	3a9e                	fld	fs5,480(sp)
    80003370:	2b7e                	fld	fs6,472(sp)
    80003372:	2bde                	fld	fs7,464(sp)
    80003374:	2c3e                	fld	fs8,456(sp)
    80003376:	2c9e                	fld	fs9,448(sp)
    80003378:	3d7a                	fld	fs10,440(sp)
    8000337a:	3dda                	fld	fs11,432(sp)
    8000337c:	28010113          	addi	sp,sp,640
    80003380:	8082                	ret
    80003382:	e7043783          	ld	a5,-400(s0)
    80003386:	f2079463          	bnez	a5,80002aae <mm_cb+0x97a>
    8000338a:	bf79                	j	80003328 <mm_cb+0x11f4>
    8000338c:	ea843783          	ld	a5,-344(s0)
    80003390:	4765                	li	a4,25
    80003392:	ec843483          	ld	s1,-312(s0)
    80003396:	02e7dfb3          	divu	t6,a5,a4
    8000339a:	e5843783          	ld	a5,-424(s0)
    8000339e:	e7843383          	ld	t2,-392(s0)
    800033a2:	00978933          	add	s2,a5,s1
    800033a6:	012789b3          	add	s3,a5,s2
    800033aa:	01378d33          	add	s10,a5,s3
    800033ae:	e4043783          	ld	a5,-448(s0)
    800033b2:	8eea                	mv	t4,s10
    800033b4:	8d4a                	mv	s10,s2
    800033b6:	de043903          	ld	s2,-544(s0)
    800033ba:	9fbe                	add	t6,t6,a5
    800033bc:	038f8fb3          	mul	t6,t6,s8
    800033c0:	eb043783          	ld	a5,-336(s0)
    800033c4:	9fbe                	add	t6,t6,a5
    800033c6:	de843783          	ld	a5,-536(s0)
    800033ca:	0c8f8f13          	addi	t5,t6,200
    800033ce:	dbf43023          	sd	t6,-608(s0)
    800033d2:	97fe                	add	a5,a5,t6
    800033d4:	8ffa                	mv	t6,t5
    800033d6:	8f6e                	mv	t5,s11
    800033d8:	8dce                	mv	s11,s3
    800033da:	db843983          	ld	s3,-584(s0)
    800033de:	e0f43423          	sd	a5,-504(s0)
    800033e2:	e2043783          	ld	a5,-480(s0)
    800033e6:	ec043303          	ld	t1,-320(s0)
    800033ea:	e1843283          	ld	t0,-488(s0)
    800033ee:	00998833          	add	a6,s3,s1
    800033f2:	009788b3          	add	a7,a5,s1
    800033f6:	f38f8513          	addi	a0,t6,-200
    800033fa:	879a                	mv	a5,t1
    800033fc:	00053a87          	fld	fs5,0(a0)
    80003400:	00853a07          	fld	fs4,8(a0)
    80003404:	01053987          	fld	fs3,16(a0)
    80003408:	01853907          	fld	fs2,24(a0)
    8000340c:	02053007          	fld	ft0,32(a0)
    80003410:	2564                	fld	fs1,200(a0)
    80003412:	2960                	fld	fs0,208(a0)
    80003414:	0d853f87          	fld	ft11,216(a0)
    80003418:	0e053f07          	fld	ft10,224(a0)
    8000341c:	356c                	fld	fa1,232(a0)
    8000341e:	19053e07          	fld	ft8,400(a0)
    80003422:	19853b87          	fld	fs7,408(a0)
    80003426:	1a053e87          	fld	ft9,416(a0)
    8000342a:	1a853287          	fld	ft5,424(a0)
    8000342e:	1b053607          	fld	fa2,432(a0)
    80003432:	25853207          	fld	ft4,600(a0)
    80003436:	26053187          	fld	ft3,608(a0)
    8000343a:	26853107          	fld	ft2,616(a0)
    8000343e:	27053687          	fld	fa3,624(a0)
    80003442:	27853787          	fld	fa5,632(a0)
    80003446:	3704f063          	bleu	a6,s1,800037a6 <mm_cb+0x1672>
    8000344a:	23ef0d53          	fmv.d	fs10,ft10
    8000344e:	235a8553          	fmv.d	fa0,fs5
    80003452:	22948f53          	fmv.d	ft10,fs1
    80003456:	22528c53          	fmv.d	fs8,ft5
    8000345a:	23ff84d3          	fmv.d	fs1,ft11
    8000345e:	23ce02d3          	fmv.d	ft5,ft8
    80003462:	22f788d3          	fmv.d	fa7,fa5
    80003466:	22840e53          	fmv.d	ft8,fs0
    8000346a:	23290fd3          	fmv.d	ft11,fs2
    8000346e:	23398453          	fmv.d	fs0,fs3
    80003472:	22c60753          	fmv.d	fa4,fa2
    80003476:	22420ad3          	fmv.d	fs5,ft4
    8000347a:	22318353          	fmv.d	ft6,ft3
    8000347e:	222103d3          	fmv.d	ft7,ft2
    80003482:	22d68853          	fmv.d	fa6,fa3
    80003486:	234a07d3          	fmv.d	fa5,fs4
    8000348a:	8e16                	mv	t3,t0
    8000348c:	85f6                	mv	a1,t4
    8000348e:	866e                	mv	a2,s11
    80003490:	86ea                	mv	a3,s10
    80003492:	8726                	mv	a4,s1
    80003494:	80c6                	mv	ra,a7
    80003496:	82f6                	mv	t0,t4
    80003498:	00073b07          	fld	fs6,0(a4)
    8000349c:	0006b187          	fld	ft3,0(a3)
    800034a0:	00063107          	fld	ft2,0(a2)
    800034a4:	0005bc87          	fld	fs9,0(a1)
    800034a8:	0087bd87          	fld	fs11,8(a5)
    800034ac:	0107b207          	fld	ft4,16(a5)
    800034b0:	2f90                	fld	fa2,24(a5)
    800034b2:	3394                	fld	fa3,32(a5)
    800034b4:	0007b087          	fld	ft1,0(a5)
    800034b8:	d2367d43          	fmadd.d	fs10,fa2,ft3,fs10
    800034bc:	ba2dfbc3          	fmadd.d	fs7,fs11,ft2,fs7
    800034c0:	521b7543          	fmadd.d	fa0,fs6,ft1,fa0
    800034c4:	7bbb77c3          	fmadd.d	fa5,fs6,fs11,fa5
    800034c8:	424b7443          	fmadd.d	fs0,fs6,ft4,fs0
    800034cc:	facb7fc3          	fmadd.d	ft11,fs6,fa2,ft11
    800034d0:	02db7043          	fmadd.d	ft0,fs6,fa3,ft0
    800034d4:	f230ff43          	fmadd.d	ft10,ft1,ft3,ft10
    800034d8:	ea227b43          	fmadd.d	fs6,ft4,ft2,ft9
    800034dc:	e23dfe43          	fmadd.d	ft8,fs11,ft3,ft8
    800034e0:	4a3274c3          	fmadd.d	fs1,ft4,ft3,fs1
    800034e4:	5a36f5c3          	fmadd.d	fa1,fa3,ft3,fa1
    800034e8:	2a20f2c3          	fmadd.d	ft5,ft1,ft2,ft5
    800034ec:	c2267c43          	fmadd.d	fs8,fa2,ft2,fs8
    800034f0:	7226f743          	fmadd.d	fa4,fa3,ft2,fa4
    800034f4:	ab90f0c3          	fmadd.d	ft1,ft1,fs9,fs5
    800034f8:	339df343          	fmadd.d	ft6,fs11,fs9,ft6
    800034fc:	3b9273c3          	fmadd.d	ft7,ft4,fs9,ft7
    80003500:	83967843          	fmadd.d	fa6,fa2,fs9,fa6
    80003504:	8b96f8c3          	fmadd.d	fa7,fa3,fs9,fa7
    80003508:	014788b3          	add	a7,a5,s4
    8000350c:	2710                	fld	fa2,8(a4)
    8000350e:	2694                	fld	fa3,8(a3)
    80003510:	00863107          	fld	ft2,8(a2)
    80003514:	0085b907          	fld	fs2,8(a1)
    80003518:	0008b187          	fld	ft3,0(a7)
    8000351c:	0088bc87          	fld	fs9,8(a7)
    80003520:	0108ba87          	fld	fs5,16(a7)
    80003524:	0188ba07          	fld	fs4,24(a7)
    80003528:	0208b987          	fld	fs3,32(a7)
    8000352c:	ba2cfec3          	fmadd.d	ft9,fs9,ft2,fs7
    80003530:	d2da7243          	fmadd.d	ft4,fs4,fa3,fs10
    80003534:	0b21f0c3          	fmadd.d	ft1,ft3,fs2,ft1
    80003538:	52367543          	fmadd.d	fa0,fa2,ft3,fa0
    8000353c:	7b9677c3          	fmadd.d	fa5,fa2,fs9,fa5
    80003540:	43567443          	fmadd.d	fs0,fa2,fs5,fs0
    80003544:	fb467fc3          	fmadd.d	ft11,fa2,fs4,ft11
    80003548:	03367043          	fmadd.d	ft0,fa2,fs3,ft0
    8000354c:	f2d1ff43          	fmadd.d	ft10,ft3,fa3,ft10
    80003550:	e2dcfe43          	fmadd.d	ft8,fs9,fa3,ft8
    80003554:	4adaf4c3          	fmadd.d	fs1,fs5,fa3,fs1
    80003558:	5ad9f5c3          	fmadd.d	fa1,fs3,fa3,fa1
    8000355c:	2a21f2c3          	fmadd.d	ft5,ft3,ft2,ft5
    80003560:	b22afb43          	fmadd.d	fs6,fs5,ft2,fs6
    80003564:	c22a7c43          	fmadd.d	fs8,fs4,ft2,fs8
    80003568:	7229f743          	fmadd.d	fa4,fs3,ft2,fa4
    8000356c:	332cf343          	fmadd.d	ft6,fs9,fs2,ft6
    80003570:	3b2af3c3          	fmadd.d	ft7,fs5,fs2,ft7
    80003574:	832a7843          	fmadd.d	fa6,fs4,fs2,fa6
    80003578:	8b29f8c3          	fmadd.d	fa7,fs3,fs2,fa7
    8000357c:	00fc88b3          	add	a7,s9,a5
    80003580:	2b10                	fld	fa2,16(a4)
    80003582:	2a94                	fld	fa3,16(a3)
    80003584:	01063107          	fld	ft2,16(a2)
    80003588:	0105bc87          	fld	fs9,16(a1)
    8000358c:	0088b987          	fld	fs3,8(a7)
    80003590:	0108b907          	fld	fs2,16(a7)
    80003594:	0188b187          	fld	ft3,24(a7)
    80003598:	0008ba87          	fld	fs5,0(a7)
    8000359c:	0208bb87          	fld	fs7,32(a7)
    800035a0:	3b9973c3          	fmadd.d	ft7,fs2,fs9,ft7
    800035a4:	53567543          	fmadd.d	fa0,fa2,fs5,fa0
    800035a8:	722bf743          	fmadd.d	fa4,fs7,ft2,fa4
    800035ac:	8b9bf8c3          	fmadd.d	fa7,fs7,fs9,fa7
    800035b0:	7b3677c3          	fmadd.d	fa5,fa2,fs3,fa5
    800035b4:	43267443          	fmadd.d	fs0,fa2,fs2,fs0
    800035b8:	fa367fc3          	fmadd.d	ft11,fa2,ft3,ft11
    800035bc:	03767043          	fmadd.d	ft0,fa2,fs7,ft0
    800035c0:	f2daff43          	fmadd.d	ft10,fs5,fa3,ft10
    800035c4:	e2d9fe43          	fmadd.d	ft8,fs3,fa3,ft8
    800035c8:	4ad974c3          	fmadd.d	fs1,fs2,fa3,fs1
    800035cc:	22d1f243          	fmadd.d	ft4,ft3,fa3,ft4
    800035d0:	5adbf5c3          	fmadd.d	fa1,fs7,fa3,fa1
    800035d4:	2a2af2c3          	fmadd.d	ft5,fs5,ft2,ft5
    800035d8:	ea29fec3          	fmadd.d	ft9,fs3,ft2,ft9
    800035dc:	0b9afac3          	fmadd.d	fs5,fs5,fs9,ft1
    800035e0:	b2297b43          	fmadd.d	fs6,fs2,ft2,fs6
    800035e4:	c221fc43          	fmadd.d	fs8,ft3,ft2,fs8
    800035e8:	3399f343          	fmadd.d	ft6,fs3,fs9,ft6
    800035ec:	8391f843          	fmadd.d	fa6,ft3,fs9,fa6
    800035f0:	016788b3          	add	a7,a5,s6
    800035f4:	2f10                	fld	fa2,24(a4)
    800035f6:	0088b987          	fld	fs3,8(a7)
    800035fa:	0188b187          	fld	ft3,24(a7)
    800035fe:	0008ba07          	fld	fs4,0(a7)
    80003602:	0108b907          	fld	fs2,16(a7)
    80003606:	0208bb87          	fld	fs7,32(a7)
    8000360a:	2e94                	fld	fa3,24(a3)
    8000360c:	01863107          	fld	ft2,24(a2)
    80003610:	0185b087          	fld	ft1,24(a1)
    80003614:	03767043          	fmadd.d	ft0,fa2,fs7,ft0
    80003618:	5adbf5c3          	fmadd.d	fa1,fs7,fa3,fa1
    8000361c:	3219f343          	fmadd.d	ft6,fs3,ft1,ft6
    80003620:	8211f843          	fmadd.d	fa6,ft3,ft1,fa6
    80003624:	53467543          	fmadd.d	fa0,fa2,fs4,fa0
    80003628:	7b3677c3          	fmadd.d	fa5,fa2,fs3,fa5
    8000362c:	43267443          	fmadd.d	fs0,fa2,fs2,fs0
    80003630:	fa367fc3          	fmadd.d	ft11,fa2,ft3,ft11
    80003634:	f2da7f43          	fmadd.d	ft10,fs4,fa3,ft10
    80003638:	e2d9fe43          	fmadd.d	ft8,fs3,fa3,ft8
    8000363c:	4ad974c3          	fmadd.d	fs1,fs2,fa3,fs1
    80003640:	22d1f243          	fmadd.d	ft4,ft3,fa3,ft4
    80003644:	2a2a72c3          	fmadd.d	ft5,fs4,ft2,ft5
    80003648:	ea29fec3          	fmadd.d	ft9,fs3,ft2,ft9
    8000364c:	b2297b43          	fmadd.d	fs6,fs2,ft2,fs6
    80003650:	c221fc43          	fmadd.d	fs8,ft3,ft2,fs8
    80003654:	aa1a7a43          	fmadd.d	fs4,fs4,ft1,fs5
    80003658:	722bf143          	fmadd.d	ft2,fs7,ft2,fa4
    8000365c:	3a197943          	fmadd.d	fs2,fs2,ft1,ft7
    80003660:	8a1bf0c3          	fmadd.d	ft1,fs7,ft1,fa7
    80003664:	00fb88b3          	add	a7,s7,a5
    80003668:	3218                	fld	fa4,32(a2)
    8000366a:	0205bd87          	fld	fs11,32(a1)
    8000366e:	3310                	fld	fa2,32(a4)
    80003670:	3294                	fld	fa3,32(a3)
    80003672:	0108bd07          	fld	fs10,16(a7)
    80003676:	0208b887          	fld	fa7,32(a7)
    8000367a:	0008ba87          	fld	fs5,0(a7)
    8000367e:	0088b987          	fld	fs3,8(a7)
    80003682:	0188bc87          	fld	fs9,24(a7)
    80003686:	53567543          	fmadd.d	fa0,fa2,fs5,fa0
    8000368a:	eae9fec3          	fmadd.d	ft9,fs3,fa4,ft9
    8000368e:	7b3677c3          	fmadd.d	fa5,fa2,fs3,fa5
    80003692:	43a67443          	fmadd.d	fs0,fa2,fs10,fs0
    80003696:	fb967fc3          	fmadd.d	ft11,fa2,fs9,ft11
    8000369a:	f2daff43          	fmadd.d	ft10,fs5,fa3,ft10
    8000369e:	03167643          	fmadd.d	fa2,fa2,fa7,ft0
    800036a2:	e2d9fe43          	fmadd.d	ft8,fs3,fa3,ft8
    800036a6:	4add74c3          	fmadd.d	fs1,fs10,fa3,fs1
    800036aa:	22dcf243          	fmadd.d	ft4,fs9,fa3,ft4
    800036ae:	2aeaf2c3          	fmadd.d	ft5,fs5,fa4,ft5
    800036b2:	5ad8f6c3          	fmadd.d	fa3,fa7,fa3,fa1
    800036b6:	b2ed7b43          	fmadd.d	fs6,fs10,fa4,fs6
    800036ba:	c2ecfc43          	fmadd.d	fs8,fs9,fa4,fs8
    800036be:	12e8f143          	fmadd.d	ft2,fa7,fa4,ft2
    800036c2:	33b9f9c3          	fmadd.d	fs3,fs3,fs11,ft6
    800036c6:	93bd7943          	fmadd.d	fs2,fs10,fs11,fs2
    800036ca:	83bcfcc3          	fmadd.d	fs9,fs9,fs11,fa6
    800036ce:	0bb8f0c3          	fmadd.d	ft1,fa7,fs11,ft1
    800036d2:	a3bafac3          	fmadd.d	fs5,fs5,fs11,fs4
    800036d6:	015788b3          	add	a7,a5,s5
    800036da:	02873007          	fld	ft0,40(a4)
    800036de:	368c                	fld	fa1,40(a3)
    800036e0:	3618                	fld	fa4,40(a2)
    800036e2:	0285bd87          	fld	fs11,40(a1)
    800036e6:	0008b187          	fld	ft3,0(a7)
    800036ea:	0088b307          	fld	ft6,8(a7)
    800036ee:	0108b387          	fld	ft7,16(a7)
    800036f2:	0188b807          	fld	fa6,24(a7)
    800036f6:	0208b887          	fld	fa7,32(a7)
    800036fa:	03070713          	addi	a4,a4,48
    800036fe:	eae37bc3          	fmadd.d	fs7,ft6,fa4,ft9
    80003702:	7a6077c3          	fmadd.d	fa5,ft0,ft6,fa5
    80003706:	42707443          	fmadd.d	fs0,ft0,ft7,fs0
    8000370a:	fb007fc3          	fmadd.d	ft11,ft0,fa6,ft11
    8000370e:	e2b37e43          	fmadd.d	ft8,ft6,fa1,ft8
    80003712:	4ab3f4c3          	fmadd.d	fs1,ft7,fa1,fs1
    80003716:	22b87d43          	fmadd.d	fs10,fa6,fa1,ft4
    8000371a:	b2e3fec3          	fmadd.d	ft9,ft7,fa4,fs6
    8000371e:	c2e87c43          	fmadd.d	fs8,fa6,fa4,fs8
    80003722:	52307543          	fmadd.d	fa0,ft0,ft3,fa0
    80003726:	f2b1ff43          	fmadd.d	ft10,ft3,fa1,ft10
    8000372a:	63107043          	fmadd.d	ft0,ft0,fa7,fa2
    8000372e:	6ab8f5c3          	fmadd.d	fa1,fa7,fa1,fa3
    80003732:	2ae1f2c3          	fmadd.d	ft5,ft3,fa4,ft5
    80003736:	abb1fac3          	fmadd.d	fs5,ft3,fs11,fs5
    8000373a:	12e8f743          	fmadd.d	fa4,fa7,fa4,ft2
    8000373e:	9bb37343          	fmadd.d	ft6,ft6,fs11,fs3
    80003742:	93b3f3c3          	fmadd.d	ft7,ft7,fs11,fs2
    80003746:	cbb87843          	fmadd.d	fa6,fa6,fs11,fs9
    8000374a:	0bb8f8c3          	fmadd.d	fa7,fa7,fs11,ft1
    8000374e:	97ca                	add	a5,a5,s2
    80003750:	03068693          	addi	a3,a3,48
    80003754:	03060613          	addi	a2,a2,48
    80003758:	03058593          	addi	a1,a1,48
    8000375c:	d3076ee3          	bltu	a4,a6,80003498 <mm_cb+0x1364>
    80003760:	228409d3          	fmv.d	fs3,fs0
    80003764:	23ff8953          	fmv.d	fs2,ft11
    80003768:	23ce0453          	fmv.d	fs0,ft8
    8000376c:	22948fd3          	fmv.d	ft11,fs1
    80003770:	22f78a53          	fmv.d	fs4,fa5
    80003774:	23ef04d3          	fmv.d	fs1,ft10
    80003778:	22528e53          	fmv.d	ft8,ft5
    8000377c:	235a8253          	fmv.d	ft4,fs5
    80003780:	23ad0f53          	fmv.d	ft10,fs10
    80003784:	238c02d3          	fmv.d	ft5,fs8
    80003788:	22e70653          	fmv.d	fa2,fa4
    8000378c:	22a50ad3          	fmv.d	fs5,fa0
    80003790:	226301d3          	fmv.d	ft3,ft6
    80003794:	22738153          	fmv.d	ft2,ft7
    80003798:	230806d3          	fmv.d	fa3,fa6
    8000379c:	231887d3          	fmv.d	fa5,fa7
    800037a0:	8e96                	mv	t4,t0
    800037a2:	8886                	mv	a7,ra
    800037a4:	82f2                	mv	t0,t3
    800037a6:	006287b3          	add	a5,t0,t1
    800037aa:	09187863          	bleu	a7,a6,8000383a <mm_cb+0x1706>
    800037ae:	01a985b3          	add	a1,s3,s10
    800037b2:	01b98633          	add	a2,s3,s11
    800037b6:	01d986b3          	add	a3,s3,t4
    800037ba:	8742                	mv	a4,a6
    800037bc:	00073307          	fld	ft6,0(a4)
    800037c0:	0005b087          	fld	ft1,0(a1)
    800037c4:	2208                	fld	fa0,0(a2)
    800037c6:	2298                	fld	fa4,0(a3)
    800037c8:	0007bc07          	fld	fs8,0(a5)
    800037cc:	0087bb07          	fld	fs6,8(a5)
    800037d0:	0107b887          	fld	fa7,16(a5)
    800037d4:	0187b807          	fld	fa6,24(a5)
    800037d8:	0207b387          	fld	ft7,32(a5)
    800037dc:	0721                	addi	a4,a4,8
    800037de:	ab837ac3          	fmadd.d	fs5,ft6,fs8,fs5
    800037e2:	a3637a43          	fmadd.d	fs4,ft6,fs6,fs4
    800037e6:	9b1379c3          	fmadd.d	fs3,ft6,fa7,fs3
    800037ea:	93037943          	fmadd.d	fs2,ft6,fa6,fs2
    800037ee:	02737043          	fmadd.d	ft0,ft6,ft7,ft0
    800037f2:	4a1c74c3          	fmadd.d	fs1,fs8,ft1,fs1
    800037f6:	421b7443          	fmadd.d	fs0,fs6,ft1,fs0
    800037fa:	fa18ffc3          	fmadd.d	ft11,fa7,ft1,ft11
    800037fe:	f2187f43          	fmadd.d	ft10,fa6,ft1,ft10
    80003802:	5a13f5c3          	fmadd.d	fa1,ft7,ft1,fa1
    80003806:	e2ac7e43          	fmadd.d	ft8,fs8,fa0,ft8
    8000380a:	baab7bc3          	fmadd.d	fs7,fs6,fa0,fs7
    8000380e:	eaa8fec3          	fmadd.d	ft9,fa7,fa0,ft9
    80003812:	2aa872c3          	fmadd.d	ft5,fa6,fa0,ft5
    80003816:	62a3f643          	fmadd.d	fa2,ft7,fa0,fa2
    8000381a:	22ec7243          	fmadd.d	ft4,fs8,fa4,ft4
    8000381e:	1aeb71c3          	fmadd.d	ft3,fs6,fa4,ft3
    80003822:	12e8f143          	fmadd.d	ft2,fa7,fa4,ft2
    80003826:	6ae876c3          	fmadd.d	fa3,fa6,fa4,fa3
    8000382a:	7ae3f7c3          	fmadd.d	fa5,ft7,fa4,fa5
    8000382e:	97d2                	add	a5,a5,s4
    80003830:	05a1                	addi	a1,a1,8
    80003832:	0621                	addi	a2,a2,8
    80003834:	06a1                	addi	a3,a3,8
    80003836:	f91763e3          	bltu	a4,a7,800037bc <mm_cb+0x1688>
    8000383a:	01553027          	fsd	fs5,0(a0)
    8000383e:	01453427          	fsd	fs4,8(a0)
    80003842:	01353827          	fsd	fs3,16(a0)
    80003846:	01253c27          	fsd	fs2,24(a0)
    8000384a:	02053027          	fsd	ft0,32(a0)
    8000384e:	a564                	fsd	fs1,200(a0)
    80003850:	a960                	fsd	fs0,208(a0)
    80003852:	0df53c27          	fsd	ft11,216(a0)
    80003856:	0fe53027          	fsd	ft10,224(a0)
    8000385a:	b56c                	fsd	fa1,232(a0)
    8000385c:	19c53827          	fsd	ft8,400(a0)
    80003860:	19753c27          	fsd	fs7,408(a0)
    80003864:	1bd53027          	fsd	ft9,416(a0)
    80003868:	1a553427          	fsd	ft5,424(a0)
    8000386c:	1ac53827          	fsd	fa2,432(a0)
    80003870:	24453c27          	fsd	ft4,600(a0)
    80003874:	26353027          	fsd	ft3,608(a0)
    80003878:	26253427          	fsd	ft2,616(a0)
    8000387c:	26d53827          	fsd	fa3,624(a0)
    80003880:	26f53c27          	fsd	fa5,632(a0)
    80003884:	02830313          	addi	t1,t1,40
    80003888:	02850513          	addi	a0,a0,40
    8000388c:	b66f17e3          	bne	t5,t1,800033fa <mm_cb+0x12c6>
    80003890:	f2043803          	ld	a6,-224(s0)
    80003894:	f1843703          	ld	a4,-232(s0)
    80003898:	e9043603          	ld	a2,-368(s0)
    8000389c:	47e5                	li	a5,25
    8000389e:	88fe                	mv	a7,t6
    800038a0:	86a6                	mv	a3,s1
    800038a2:	320f8f93          	addi	t6,t6,800
    800038a6:	e03e                	sd	a5,0(sp)
    800038a8:	4581                	li	a1,0
    800038aa:	87fa                	mv	a5,t5
    800038ac:	4511                	li	a0,4
    800038ae:	e5d43423          	sd	t4,-440(s0)
    800038b2:	ec743c23          	sd	t2,-296(s0)
    800038b6:	efe43023          	sd	t5,-288(s0)
    800038ba:	eff43423          	sd	t6,-280(s0)
    800038be:	f42fe0ef          	jal	ra,80002000 <mm_naive>
    800038c2:	ed843383          	ld	t2,-296(s0)
    800038c6:	e4843e83          	ld	t4,-440(s0)
    800038ca:	e0843783          	ld	a5,-504(s0)
    800038ce:	ee843f83          	ld	t6,-280(s0)
    800038d2:	949e                	add	s1,s1,t2
    800038d4:	9d1e                	add	s10,s10,t2
    800038d6:	9d9e                	add	s11,s11,t2
    800038d8:	9e9e                	add	t4,t4,t2
    800038da:	ee043f03          	ld	t5,-288(s0)
    800038de:	b1f792e3          	bne	a5,t6,800033e2 <mm_cb+0x12ae>
    800038e2:	da043f83          	ld	t6,-608(s0)
    800038e6:	47e5                	li	a5,25
    800038e8:	e03e                	sd	a5,0(sp)
    800038ea:	f2043803          	ld	a6,-224(s0)
    800038ee:	ec043783          	ld	a5,-320(s0)
    800038f2:	f1843703          	ld	a4,-232(s0)
    800038f6:	e5043683          	ld	a3,-432(s0)
    800038fa:	e9043603          	ld	a2,-368(s0)
    800038fe:	018f88b3          	add	a7,t6,s8
    80003902:	45e5                	li	a1,25
    80003904:	4501                	li	a0,0
    80003906:	8dfa                	mv	s11,t5
    80003908:	ef8fe0ef          	jal	ra,80002000 <mm_naive>
    8000390c:	93eff06f          	j	80002a4a <mm_cb+0x916>
    80003910:	f0043783          	ld	a5,-256(s0)
    80003914:	96078663          	beqz	a5,80002a80 <mm_cb+0x94c>
    80003918:	ec843703          	ld	a4,-312(s0)
    8000391c:	da843783          	ld	a5,-600(s0)
    80003920:	ec043023          	sd	zero,-320(s0)
    80003924:	97ba                	add	a5,a5,a4
    80003926:	eaf43423          	sd	a5,-344(s0)
    8000392a:	dc043783          	ld	a5,-576(s0)
    8000392e:	ecf43423          	sd	a5,-312(s0)
    80003932:	ec043703          	ld	a4,-320(s0)
    80003936:	f0043783          	ld	a5,-256(s0)
    8000393a:	8f99                	sub	a5,a5,a4
    8000393c:	ecf43c23          	sd	a5,-296(s0)
    80003940:	4761                	li	a4,24
    80003942:	00f77563          	bleu	a5,a4,8000394c <mm_cb+0x1818>
    80003946:	47e1                	li	a5,24
    80003948:	ecf43c23          	sd	a5,-296(s0)
    8000394c:	ed843683          	ld	a3,-296(s0)
    80003950:	4799                	li	a5,6
    80003952:	e5843703          	ld	a4,-424(s0)
    80003956:	02f6d7b3          	divu	a5,a3,a5
    8000395a:	ea843483          	ld	s1,-344(s0)
    8000395e:	068e                	slli	a3,a3,0x3
    80003960:	e0d43423          	sd	a3,-504(s0)
    80003964:	00970d33          	add	s10,a4,s1
    80003968:	01a70db3          	add	s11,a4,s10
    8000396c:	e8843683          	ld	a3,-376(s0)
    80003970:	ec843603          	ld	a2,-312(s0)
    80003974:	01b703b3          	add	t2,a4,s11
    80003978:	e8043703          	ld	a4,-384(s0)
    8000397c:	96b2                	add	a3,a3,a2
    8000397e:	e4d43423          	sd	a3,-440(s0)
    80003982:	eee43423          	sd	a4,-280(s0)
    80003986:	4719                	li	a4,6
    80003988:	eee43023          	sd	a4,-288(s0)
    8000398c:	00179913          	slli	s2,a5,0x1
    80003990:	993e                	add	s2,s2,a5
    80003992:	02fa07b3          	mul	a5,s4,a5
    80003996:	0912                	slli	s2,s2,0x4
    80003998:	def43023          	sd	a5,-544(s0)
    8000399c:	f0843783          	ld	a5,-248(s0)
    800039a0:	4c078963          	beqz	a5,80003e72 <mm_cb+0x1d3e>
    800039a4:	dd043783          	ld	a5,-560(s0)
    800039a8:	ee843883          	ld	a7,-280(s0)
    800039ac:	e0843703          	ld	a4,-504(s0)
    800039b0:	ec843f83          	ld	t6,-312(s0)
    800039b4:	01178833          	add	a6,a5,a7
    800039b8:	de043083          	ld	ra,-544(s0)
    800039bc:	01078533          	add	a0,a5,a6
    800039c0:	00990e33          	add	t3,s2,s1
    800039c4:	00970eb3          	add	t4,a4,s1
    800039c8:	00a78333          	add	t1,a5,a0
    800039cc:	4281                	li	t0,0
    800039ce:	87fe                	mv	a5,t6
    800039d0:	0008ba07          	fld	fs4,0(a7)
    800039d4:	0088b987          	fld	fs3,8(a7)
    800039d8:	0108b907          	fld	fs2,16(a7)
    800039dc:	0188b487          	fld	fs1,24(a7)
    800039e0:	0208b507          	fld	fa0,32(a7)
    800039e4:	00083407          	fld	fs0,0(a6)
    800039e8:	00883f87          	fld	ft11,8(a6)
    800039ec:	01083f07          	fld	ft10,16(a6)
    800039f0:	01883e87          	fld	ft9,24(a6)
    800039f4:	02083587          	fld	fa1,32(a6)
    800039f8:	00053e07          	fld	ft8,0(a0)
    800039fc:	00853b07          	fld	fs6,8(a0)
    80003a00:	01053a87          	fld	fs5,16(a0)
    80003a04:	01853187          	fld	ft3,24(a0)
    80003a08:	3114                	fld	fa3,32(a0)
    80003a0a:	00033107          	fld	ft2,0(t1)
    80003a0e:	00833087          	fld	ft1,8(t1)
    80003a12:	01033007          	fld	ft0,16(t1)
    80003a16:	01833707          	fld	fa4,24(t1)
    80003a1a:	02033787          	fld	fa5,32(t1)
    80003a1e:	35c4f963          	bleu	t3,s1,80003d70 <mm_cb+0x1c3c>
    80003a22:	23ef0dd3          	fmv.d	fs11,ft10
    80003a26:	220002d3          	fmv.d	ft5,ft0
    80003a2a:	22948f53          	fmv.d	ft10,fs1
    80003a2e:	22f783d3          	fmv.d	ft7,fa5
    80003a32:	23ff84d3          	fmv.d	fs1,ft11
    80003a36:	23de8653          	fmv.d	fa2,ft9
    80003a3a:	23290fd3          	fmv.d	ft11,fs2
    80003a3e:	236b08d3          	fmv.d	fa7,fs6
    80003a42:	22318bd3          	fmv.d	fs7,ft3
    80003a46:	22108253          	fmv.d	ft4,ft1
    80003a4a:	234a0053          	fmv.d	ft0,fs4
    80003a4e:	22e70353          	fmv.d	ft6,fa4
    80003a52:	233987d3          	fmv.d	fa5,fs3
    80003a56:	859e                	mv	a1,t2
    80003a58:	8f06                	mv	t5,ra
    80003a5a:	866e                	mv	a2,s11
    80003a5c:	809e                	mv	ra,t2
    80003a5e:	86ea                	mv	a3,s10
    80003a60:	8726                	mv	a4,s1
    80003a62:	f3d43423          	sd	t4,-216(s0)
    80003a66:	83fe                	mv	t2,t6
    80003a68:	00073e87          	fld	ft9,0(a4)
    80003a6c:	0006b807          	fld	fa6,0(a3)
    80003a70:	00063907          	fld	fs2,0(a2)
    80003a74:	0005bc87          	fld	fs9,0(a1)
    80003a78:	2398                	fld	fa4,0(a5)
    80003a7a:	0087bc07          	fld	fs8,8(a5)
    80003a7e:	0107bb07          	fld	fs6,16(a5)
    80003a82:	0187b187          	fld	ft3,24(a5)
    80003a86:	0207b087          	fld	ft1,32(a5)
    80003a8a:	02eef043          	fmadd.d	ft0,ft9,fa4,ft0
    80003a8e:	7b8ef7c3          	fmadd.d	fa5,ft9,fs8,fa5
    80003a92:	6b20f6c3          	fmadd.d	fa3,ft1,fs2,fa3
    80003a96:	fb6effc3          	fmadd.d	ft11,ft9,fs6,ft11
    80003a9a:	f23eff43          	fmadd.d	ft10,ft9,ft3,ft10
    80003a9e:	521ef543          	fmadd.d	fa0,ft9,ft1,fa0
    80003aa2:	4b0c74c3          	fmadd.d	fs1,fs8,fa6,fs1
    80003aa6:	43077ec3          	fmadd.d	ft9,fa4,fa6,fs0
    80003aaa:	6301f643          	fmadd.d	fa2,ft3,fa6,fa2
    80003aae:	db0b7443          	fmadd.d	fs0,fs6,fa6,fs11
    80003ab2:	5b00f5c3          	fmadd.d	fa1,ft1,fa6,fa1
    80003ab6:	8b2c78c3          	fmadd.d	fa7,fs8,fs2,fa7
    80003aba:	e3277843          	fmadd.d	fa6,fa4,fs2,ft8
    80003abe:	ab2b7ac3          	fmadd.d	fs5,fs6,fs2,fs5
    80003ac2:	bb21fbc3          	fmadd.d	fs7,ft3,fs2,fs7
    80003ac6:	13977143          	fmadd.d	ft2,fa4,fs9,ft2
    80003aca:	239c7243          	fmadd.d	ft4,fs8,fs9,ft4
    80003ace:	2b9b72c3          	fmadd.d	ft5,fs6,fs9,ft5
    80003ad2:	3391f343          	fmadd.d	ft6,ft3,fs9,ft6
    80003ad6:	3b90f3c3          	fmadd.d	ft7,ft1,fs9,ft7
    80003ada:	01378eb3          	add	t4,a5,s3
    80003ade:	00873e07          	fld	ft8,8(a4)
    80003ae2:	0086b187          	fld	ft3,8(a3)
    80003ae6:	0085b907          	fld	fs2,8(a1)
    80003aea:	2618                	fld	fa4,8(a2)
    80003aec:	000ebc07          	fld	fs8,0(t4)
    80003af0:	008ebb07          	fld	fs6,8(t4)
    80003af4:	010eba07          	fld	fs4,16(t4)
    80003af8:	018eb987          	fld	fs3,24(t4)
    80003afc:	020eb087          	fld	ft1,32(t4)
    80003b00:	038e7043          	fmadd.d	ft0,ft8,fs8,ft0
    80003b04:	6239f643          	fmadd.d	fa2,fs3,ft3,fa2
    80003b08:	7b6e77c3          	fmadd.d	fa5,ft8,fs6,fa5
    80003b0c:	fb4e7fc3          	fmadd.d	ft11,ft8,fs4,ft11
    80003b10:	f33e7f43          	fmadd.d	ft10,ft8,fs3,ft10
    80003b14:	521e7543          	fmadd.d	fa0,ft8,ft1,fa0
    80003b18:	ea3c7ec3          	fmadd.d	ft9,fs8,ft3,ft9
    80003b1c:	4a3b74c3          	fmadd.d	fs1,fs6,ft3,fs1
    80003b20:	423a7443          	fmadd.d	fs0,fs4,ft3,fs0
    80003b24:	5a30f5c3          	fmadd.d	fa1,ft1,ft3,fa1
    80003b28:	82ec7843          	fmadd.d	fa6,fs8,fa4,fa6
    80003b2c:	8aeb78c3          	fmadd.d	fa7,fs6,fa4,fa7
    80003b30:	aaea7ac3          	fmadd.d	fs5,fs4,fa4,fs5
    80003b34:	bae9fbc3          	fmadd.d	fs7,fs3,fa4,fs7
    80003b38:	132c7143          	fmadd.d	ft2,fs8,fs2,ft2
    80003b3c:	6ae0f743          	fmadd.d	fa4,ft1,fa4,fa3
    80003b40:	232b7243          	fmadd.d	ft4,fs6,fs2,ft4
    80003b44:	2b2a72c3          	fmadd.d	ft5,fs4,fs2,ft5
    80003b48:	3329f343          	fmadd.d	ft6,fs3,fs2,ft6
    80003b4c:	3b20f3c3          	fmadd.d	ft7,ft1,fs2,ft7
    80003b50:	00fc8eb3          	add	t4,s9,a5
    80003b54:	01073187          	fld	ft3,16(a4)
    80003b58:	2a94                	fld	fa3,16(a3)
    80003b5a:	01063087          	fld	ft1,16(a2)
    80003b5e:	0105bc07          	fld	fs8,16(a1)
    80003b62:	000ebb07          	fld	fs6,0(t4)
    80003b66:	008eba07          	fld	fs4,8(t4)
    80003b6a:	010eb987          	fld	fs3,16(t4)
    80003b6e:	018eb907          	fld	fs2,24(t4)
    80003b72:	020ebc87          	fld	fs9,32(t4)
    80003b76:	4ada74c3          	fmadd.d	fs1,fs4,fa3,fs1
    80003b7a:	138b7143          	fmadd.d	ft2,fs6,fs8,ft2
    80003b7e:	0361f043          	fmadd.d	ft0,ft3,fs6,ft0
    80003b82:	7b41f7c3          	fmadd.d	fa5,ft3,fs4,fa5
    80003b86:	fb31ffc3          	fmadd.d	ft11,ft3,fs3,ft11
    80003b8a:	f321ff43          	fmadd.d	ft10,ft3,fs2,ft10
    80003b8e:	5391f543          	fmadd.d	fa0,ft3,fs9,fa0
    80003b92:	eadb7ec3          	fmadd.d	ft9,fs6,fa3,ft9
    80003b96:	62d971c3          	fmadd.d	ft3,fs2,fa3,fa2
    80003b9a:	42d9f443          	fmadd.d	fs0,fs3,fa3,fs0
    80003b9e:	5adcf5c3          	fmadd.d	fa1,fs9,fa3,fa1
    80003ba2:	821b7843          	fmadd.d	fa6,fs6,ft1,fa6
    80003ba6:	8a1a78c3          	fmadd.d	fa7,fs4,ft1,fa7
    80003baa:	aa19fac3          	fmadd.d	fs5,fs3,ft1,fs5
    80003bae:	ba197bc3          	fmadd.d	fs7,fs2,ft1,fs7
    80003bb2:	238a7243          	fmadd.d	ft4,fs4,fs8,ft4
    80003bb6:	721cf0c3          	fmadd.d	ft1,fs9,ft1,fa4
    80003bba:	2b89f2c3          	fmadd.d	ft5,fs3,fs8,ft5
    80003bbe:	33897343          	fmadd.d	ft6,fs2,fs8,ft6
    80003bc2:	3b8cf3c3          	fmadd.d	ft7,fs9,fs8,ft7
    80003bc6:	01678eb3          	add	t4,a5,s6
    80003bca:	2f10                	fld	fa2,24(a4)
    80003bcc:	010eb987          	fld	fs3,16(t4)
    80003bd0:	018eb907          	fld	fs2,24(t4)
    80003bd4:	000ebb07          	fld	fs6,0(t4)
    80003bd8:	008eba07          	fld	fs4,8(t4)
    80003bdc:	020ebc07          	fld	fs8,32(t4)
    80003be0:	2e94                	fld	fa3,24(a3)
    80003be2:	01863c87          	fld	fs9,24(a2)
    80003be6:	2d98                	fld	fa4,24(a1)
    80003be8:	53867543          	fmadd.d	fa0,fa2,fs8,fa0
    80003bec:	42d9f443          	fmadd.d	fs0,fs3,fa3,fs0
    80003bf0:	5adc75c3          	fmadd.d	fa1,fs8,fa3,fa1
    80003bf4:	2ae9f2c3          	fmadd.d	ft5,fs3,fa4,ft5
    80003bf8:	32e97343          	fmadd.d	ft6,fs2,fa4,ft6
    80003bfc:	3aec73c3          	fmadd.d	ft7,fs8,fa4,ft7
    80003c00:	03667043          	fmadd.d	ft0,fa2,fs6,ft0
    80003c04:	fb367fc3          	fmadd.d	ft11,fa2,fs3,ft11
    80003c08:	f3267f43          	fmadd.d	ft10,fa2,fs2,ft10
    80003c0c:	eadb7ec3          	fmadd.d	ft9,fs6,fa3,ft9
    80003c10:	4ada7e43          	fmadd.d	ft8,fs4,fa3,fs1
    80003c14:	1ad971c3          	fmadd.d	ft3,fs2,fa3,ft3
    80003c18:	839b7843          	fmadd.d	fa6,fs6,fs9,fa6
    80003c1c:	ab99fac3          	fmadd.d	fs5,fs3,fs9,fs5
    80003c20:	bb997bc3          	fmadd.d	fs7,fs2,fs9,fs7
    80003c24:	0b9c70c3          	fmadd.d	ft1,fs8,fs9,ft1
    80003c28:	12eb7b43          	fmadd.d	fs6,fs6,fa4,ft2
    80003c2c:	22ea7243          	fmadd.d	ft4,fs4,fa4,ft4
    80003c30:	7b4677c3          	fmadd.d	fa5,fa2,fs4,fa5
    80003c34:	8b9a78c3          	fmadd.d	fa7,fs4,fs9,fa7
    80003c38:	00fb8eb3          	add	t4,s7,a5
    80003c3c:	3218                	fld	fa4,32(a2)
    80003c3e:	3310                	fld	fa2,32(a4)
    80003c40:	3294                	fld	fa3,32(a3)
    80003c42:	0205bd07          	fld	fs10,32(a1)
    80003c46:	000eb907          	fld	fs2,0(t4)
    80003c4a:	018eb487          	fld	fs1,24(t4)
    80003c4e:	020eb107          	fld	ft2,32(t4)
    80003c52:	008eb987          	fld	fs3,8(t4)
    80003c56:	010ebc87          	fld	fs9,16(t4)
    80003c5a:	03267043          	fmadd.d	ft0,fa2,fs2,ft0
    80003c5e:	e2d9fe43          	fmadd.d	ft8,fs3,fa3,ft8
    80003c62:	42dcfdc3          	fmadd.d	fs11,fs9,fa3,fs0
    80003c66:	7b3677c3          	fmadd.d	fa5,fa2,fs3,fa5
    80003c6a:	fb967fc3          	fmadd.d	ft11,fa2,fs9,ft11
    80003c6e:	f2967f43          	fmadd.d	ft10,fa2,fs1,ft10
    80003c72:	ead97ec3          	fmadd.d	ft9,fs2,fa3,ft9
    80003c76:	52267643          	fmadd.d	fa2,fa2,ft2,fa0
    80003c7a:	1ad4f1c3          	fmadd.d	ft3,fs1,fa3,ft3
    80003c7e:	82e97843          	fmadd.d	fa6,fs2,fa4,fa6
    80003c82:	5ad176c3          	fmadd.d	fa3,ft2,fa3,fa1
    80003c86:	8ae9f8c3          	fmadd.d	fa7,fs3,fa4,fa7
    80003c8a:	aaecfac3          	fmadd.d	fs5,fs9,fa4,fs5
    80003c8e:	bae4fbc3          	fmadd.d	fs7,fs1,fa4,fs7
    80003c92:	0ae170c3          	fmadd.d	ft1,ft2,fa4,ft1
    80003c96:	b3a97b43          	fmadd.d	fs6,fs2,fs10,fs6
    80003c9a:	23a9f9c3          	fmadd.d	fs3,fs3,fs10,ft4
    80003c9e:	33a4f943          	fmadd.d	fs2,fs1,fs10,ft6
    80003ca2:	2bacfcc3          	fmadd.d	fs9,fs9,fs10,ft5
    80003ca6:	3ba17d43          	fmadd.d	fs10,ft2,fs10,ft7
    80003caa:	01578eb3          	add	t4,a5,s5
    80003cae:	3708                	fld	fa0,40(a4)
    80003cb0:	368c                	fld	fa1,40(a3)
    80003cb2:	3618                	fld	fa4,40(a2)
    80003cb4:	0285bc07          	fld	fs8,40(a1)
    80003cb8:	000eb107          	fld	ft2,0(t4)
    80003cbc:	008eb207          	fld	ft4,8(t4)
    80003cc0:	010eb287          	fld	ft5,16(t4)
    80003cc4:	018eb307          	fld	ft6,24(t4)
    80003cc8:	020eb387          	fld	ft7,32(t4)
    80003ccc:	03070713          	addi	a4,a4,48
    80003cd0:	e2b274c3          	fmadd.d	fs1,ft4,fa1,ft8
    80003cd4:	02257043          	fmadd.d	ft0,fa0,ft2,ft0
    80003cd8:	7a4577c3          	fmadd.d	fa5,fa0,ft4,fa5
    80003cdc:	fa557fc3          	fmadd.d	ft11,fa0,ft5,ft11
    80003ce0:	f2657f43          	fmadd.d	ft10,fa0,ft6,ft10
    80003ce4:	eab17443          	fmadd.d	fs0,ft2,fa1,ft9
    80003ce8:	62757543          	fmadd.d	fa0,fa0,ft7,fa2
    80003cec:	dab2fdc3          	fmadd.d	fs11,ft5,fa1,fs11
    80003cf0:	1ab37643          	fmadd.d	fa2,ft6,fa1,ft3
    80003cf4:	82e17e43          	fmadd.d	ft8,ft2,fa4,fa6
    80003cf8:	6ab3f5c3          	fmadd.d	fa1,ft7,fa1,fa3
    80003cfc:	8ae278c3          	fmadd.d	fa7,ft4,fa4,fa7
    80003d00:	aae2fac3          	fmadd.d	fs5,ft5,fa4,fs5
    80003d04:	bae37bc3          	fmadd.d	fs7,ft6,fa4,fs7
    80003d08:	0ae3f6c3          	fmadd.d	fa3,ft7,fa4,ft1
    80003d0c:	b3817143          	fmadd.d	ft2,ft2,fs8,fs6
    80003d10:	9b827243          	fmadd.d	ft4,ft4,fs8,fs3
    80003d14:	cb82f2c3          	fmadd.d	ft5,ft5,fs8,fs9
    80003d18:	93837343          	fmadd.d	ft6,ft6,fs8,fs2
    80003d1c:	d383f3c3          	fmadd.d	ft7,ft7,fs8,fs10
    80003d20:	97d2                	add	a5,a5,s4
    80003d22:	03068693          	addi	a3,a3,48
    80003d26:	03060613          	addi	a2,a2,48
    80003d2a:	03058593          	addi	a1,a1,48
    80003d2e:	d3c76de3          	bltu	a4,t3,80003a68 <mm_cb+0x1934>
    80003d32:	22000a53          	fmv.d	fs4,ft0
    80003d36:	22f789d3          	fmv.d	fs3,fa5
    80003d3a:	23ff8953          	fmv.d	fs2,ft11
    80003d3e:	22c60ed3          	fmv.d	ft9,fa2
    80003d42:	22948fd3          	fmv.d	ft11,fs1
    80003d46:	23188b53          	fmv.d	fs6,fa7
    80003d4a:	23ef04d3          	fmv.d	fs1,ft10
    80003d4e:	237b81d3          	fmv.d	ft3,fs7
    80003d52:	23bd8f53          	fmv.d	ft10,fs11
    80003d56:	224200d3          	fmv.d	ft1,ft4
    80003d5a:	22528053          	fmv.d	ft0,ft5
    80003d5e:	22630753          	fmv.d	fa4,ft6
    80003d62:	227387d3          	fmv.d	fa5,ft7
    80003d66:	f2843e83          	ld	t4,-216(s0)
    80003d6a:	8f9e                	mv	t6,t2
    80003d6c:	8386                	mv	t2,ra
    80003d6e:	80fa                	mv	ra,t5
    80003d70:	01f087b3          	add	a5,ra,t6
    80003d74:	09de7963          	bleu	t4,t3,80003e06 <mm_cb+0x1cd2>
    80003d78:	01a905b3          	add	a1,s2,s10
    80003d7c:	01b90633          	add	a2,s2,s11
    80003d80:	007906b3          	add	a3,s2,t2
    80003d84:	8772                	mv	a4,t3
    80003d86:	00073307          	fld	ft6,0(a4)
    80003d8a:	0005b287          	fld	ft5,0(a1)
    80003d8e:	00063207          	fld	ft4,0(a2)
    80003d92:	2290                	fld	fa2,0(a3)
    80003d94:	0007bc07          	fld	fs8,0(a5)
    80003d98:	0087bb87          	fld	fs7,8(a5)
    80003d9c:	0107b887          	fld	fa7,16(a5)
    80003da0:	0187b807          	fld	fa6,24(a5)
    80003da4:	0207b387          	fld	ft7,32(a5)
    80003da8:	0721                	addi	a4,a4,8
    80003daa:	a3837a43          	fmadd.d	fs4,ft6,fs8,fs4
    80003dae:	9b7379c3          	fmadd.d	fs3,ft6,fs7,fs3
    80003db2:	93137943          	fmadd.d	fs2,ft6,fa7,fs2
    80003db6:	4b0374c3          	fmadd.d	fs1,ft6,fa6,fs1
    80003dba:	52737543          	fmadd.d	fa0,ft6,ft7,fa0
    80003dbe:	425c7443          	fmadd.d	fs0,fs8,ft5,fs0
    80003dc2:	fa5bffc3          	fmadd.d	ft11,fs7,ft5,ft11
    80003dc6:	f258ff43          	fmadd.d	ft10,fa7,ft5,ft10
    80003dca:	ea587ec3          	fmadd.d	ft9,fa6,ft5,ft9
    80003dce:	5a53f5c3          	fmadd.d	fa1,ft7,ft5,fa1
    80003dd2:	e24c7e43          	fmadd.d	ft8,fs8,ft4,ft8
    80003dd6:	b24bfb43          	fmadd.d	fs6,fs7,ft4,fs6
    80003dda:	aa48fac3          	fmadd.d	fs5,fa7,ft4,fs5
    80003dde:	1a4871c3          	fmadd.d	ft3,fa6,ft4,ft3
    80003de2:	6a43f6c3          	fmadd.d	fa3,ft7,ft4,fa3
    80003de6:	12cc7143          	fmadd.d	ft2,fs8,fa2,ft2
    80003dea:	0acbf0c3          	fmadd.d	ft1,fs7,fa2,ft1
    80003dee:	02c8f043          	fmadd.d	ft0,fa7,fa2,ft0
    80003df2:	72c87743          	fmadd.d	fa4,fa6,fa2,fa4
    80003df6:	7ac3f7c3          	fmadd.d	fa5,ft7,fa2,fa5
    80003dfa:	97ce                	add	a5,a5,s3
    80003dfc:	05a1                	addi	a1,a1,8
    80003dfe:	0621                	addi	a2,a2,8
    80003e00:	06a1                	addi	a3,a3,8
    80003e02:	f9d762e3          	bltu	a4,t4,80003d86 <mm_cb+0x1c52>
    80003e06:	0148b027          	fsd	fs4,0(a7)
    80003e0a:	0138b427          	fsd	fs3,8(a7)
    80003e0e:	0128b827          	fsd	fs2,16(a7)
    80003e12:	0098bc27          	fsd	fs1,24(a7)
    80003e16:	02a8b027          	fsd	fa0,32(a7)
    80003e1a:	00883027          	fsd	fs0,0(a6)
    80003e1e:	01f83427          	fsd	ft11,8(a6)
    80003e22:	01e83827          	fsd	ft10,16(a6)
    80003e26:	01d83c27          	fsd	ft9,24(a6)
    80003e2a:	02b83027          	fsd	fa1,32(a6)
    80003e2e:	f0843783          	ld	a5,-248(s0)
    80003e32:	01c53027          	fsd	ft8,0(a0)
    80003e36:	01653427          	fsd	fs6,8(a0)
    80003e3a:	01553827          	fsd	fs5,16(a0)
    80003e3e:	00353c27          	fsd	ft3,24(a0)
    80003e42:	b114                	fsd	fa3,32(a0)
    80003e44:	00233027          	fsd	ft2,0(t1)
    80003e48:	00133427          	fsd	ft1,8(t1)
    80003e4c:	00033827          	fsd	ft0,16(t1)
    80003e50:	00e33c27          	fsd	fa4,24(t1)
    80003e54:	02f33027          	fsd	fa5,32(t1)
    80003e58:	0295                	addi	t0,t0,5
    80003e5a:	02888893          	addi	a7,a7,40
    80003e5e:	02880813          	addi	a6,a6,40
    80003e62:	02850513          	addi	a0,a0,40
    80003e66:	02830313          	addi	t1,t1,40
    80003e6a:	028f8f93          	addi	t6,t6,40
    80003e6e:	b6f2e0e3          	bltu	t0,a5,800039ce <mm_cb+0x189a>
    80003e72:	e8843683          	ld	a3,-376(s0)
    80003e76:	ee843783          	ld	a5,-280(s0)
    80003e7a:	6010                	ld	a2,0(s0)
    80003e7c:	ee043303          	ld	t1,-288(s0)
    80003e80:	00f688b3          	add	a7,a3,a5
    80003e84:	e032                	sd	a2,0(sp)
    80003e86:	e4843783          	ld	a5,-440(s0)
    80003e8a:	f1843703          	ld	a4,-232(s0)
    80003e8e:	f2043803          	ld	a6,-224(s0)
    80003e92:	ed843603          	ld	a2,-296(s0)
    80003e96:	e1043583          	ld	a1,-496(s0)
    80003e9a:	86a6                	mv	a3,s1
    80003e9c:	137d                	addi	t1,t1,-1
    80003e9e:	4511                	li	a0,4
    80003ea0:	f2743423          	sd	t2,-216(s0)
    80003ea4:	ee643023          	sd	t1,-288(s0)
    80003ea8:	958fe0ef          	jal	ra,80002000 <mm_naive>
    80003eac:	ee843703          	ld	a4,-280(s0)
    80003eb0:	e0043683          	ld	a3,-512(s0)
    80003eb4:	e7843783          	ld	a5,-392(s0)
    80003eb8:	f2843383          	ld	t2,-216(s0)
    80003ebc:	ee043303          	ld	t1,-288(s0)
    80003ec0:	9736                	add	a4,a4,a3
    80003ec2:	eee43423          	sd	a4,-280(s0)
    80003ec6:	94be                	add	s1,s1,a5
    80003ec8:	9d3e                	add	s10,s10,a5
    80003eca:	9dbe                	add	s11,s11,a5
    80003ecc:	93be                	add	t2,t2,a5
    80003ece:	ac0317e3          	bnez	t1,8000399c <mm_cb+0x1868>
    80003ed2:	e6043703          	ld	a4,-416(s0)
    80003ed6:	ea843483          	ld	s1,-344(s0)
    80003eda:	ec843d03          	ld	s10,-312(s0)
    80003ede:	ec043303          	ld	t1,-320(s0)
    80003ee2:	009706b3          	add	a3,a4,s1
    80003ee6:	6018                	ld	a4,0(s0)
    80003ee8:	e4043883          	ld	a7,-448(s0)
    80003eec:	f2043803          	ld	a6,-224(s0)
    80003ef0:	e03a                	sd	a4,0(sp)
    80003ef2:	ed843603          	ld	a2,-296(s0)
    80003ef6:	f1843703          	ld	a4,-232(s0)
    80003efa:	dd843583          	ld	a1,-552(s0)
    80003efe:	87ea                	mv	a5,s10
    80003f00:	01830913          	addi	s2,t1,24
    80003f04:	4501                	li	a0,0
    80003f06:	ed243023          	sd	s2,-320(s0)
    80003f0a:	8f6fe0ef          	jal	ra,80002000 <mm_naive>
    80003f0e:	db043783          	ld	a5,-592(s0)
    80003f12:	97ea                	add	a5,a5,s10
    80003f14:	ecf43423          	sd	a5,-312(s0)
    80003f18:	0c048793          	addi	a5,s1,192
    80003f1c:	eaf43423          	sd	a5,-344(s0)
    80003f20:	f0043783          	ld	a5,-256(s0)
    80003f24:	a0f967e3          	bltu	s2,a5,80003932 <mm_cb+0x17fe>
    80003f28:	b59fe06f          	j	80002a80 <mm_cb+0x94c>
    80003f2c:	ec843783          	ld	a5,-312(s0)
    80003f30:	e6043703          	ld	a4,-416(s0)
    80003f34:	97ba                	add	a5,a5,a4
    80003f36:	e4f43823          	sd	a5,-432(s0)
    80003f3a:	b2dfe06f          	j	80002a66 <mm_cb+0x932>

0000000080003f3e <mm>:
    80003f3e:	7125                	addi	sp,sp,-416
    80003f40:	eb22                	sd	s0,400(sp)
    80003f42:	741a                	ld	s0,416(sp)
    80003f44:	ef06                	sd	ra,408(sp)
    80003f46:	e726                	sd	s1,392(sp)
    80003f48:	e34a                	sd	s2,384(sp)
    80003f4a:	fece                	sd	s3,376(sp)
    80003f4c:	fad2                	sd	s4,368(sp)
    80003f4e:	f6d6                	sd	s5,360(sp)
    80003f50:	f2da                	sd	s6,352(sp)
    80003f52:	eede                	sd	s7,344(sp)
    80003f54:	eae2                	sd	s8,336(sp)
    80003f56:	e6e6                	sd	s9,328(sp)
    80003f58:	e2ea                	sd	s10,320(sp)
    80003f5a:	fe6e                	sd	s11,312(sp)
    80003f5c:	b622                	fsd	fs0,296(sp)
    80003f5e:	b226                	fsd	fs1,288(sp)
    80003f60:	ae4a                	fsd	fs2,280(sp)
    80003f62:	aa4e                	fsd	fs3,272(sp)
    80003f64:	a652                	fsd	fs4,264(sp)
    80003f66:	a256                	fsd	fs5,256(sp)
    80003f68:	bdda                	fsd	fs6,248(sp)
    80003f6a:	b9de                	fsd	fs7,240(sp)
    80003f6c:	b5e2                	fsd	fs8,232(sp)
    80003f6e:	b1e6                	fsd	fs9,224(sp)
    80003f70:	adea                	fsd	fs10,216(sp)
    80003f72:	a9ee                	fsd	fs11,208(sp)
    80003f74:	03000313          	li	t1,48
    80003f78:	f022                	sd	s0,32(sp)
    80003f7a:	5aa36b63          	bltu	t1,a0,80004530 <mm+0x5f2>
    80003f7e:	03200e13          	li	t3,50
    80003f82:	5abe6763          	bltu	t3,a1,80004530 <mm+0x5f2>
    80003f86:	5ac36563          	bltu	t1,a2,80004530 <mm+0x5f2>
    80003f8a:	8fb2                	mv	t6,a2
    80003f8c:	f832                	sd	a2,48(sp)
    80003f8e:	4615                	li	a2,5
    80003f90:	02c5ddb3          	divu	s11,a1,a2
    80003f94:	8bb6                	mv	s7,a3
    80003f96:	e1b6                	sd	a3,192(sp)
    80003f98:	00341293          	slli	t0,s0,0x3
    80003f9c:	ffc57693          	andi	a3,a0,-4
    80003fa0:	00371e13          	slli	t3,a4,0x3
    80003fa4:	83be                	mv	t2,a5
    80003fa6:	f4be                	sd	a5,104(sp)
    80003fa8:	e5c6                	sd	a7,200(sp)
    80003faa:	e0c2                	sd	a6,64(sp)
    80003fac:	fc3a                	sd	a4,56(sp)
    80003fae:	fd2e                	sd	a1,184(sp)
    80003fb0:	f92a                	sd	a0,176(sp)
    80003fb2:	f436                	sd	a3,40(sp)
    80003fb4:	f116                	sd	t0,160(sp)
    80003fb6:	f572                	sd	t3,168(sp)
    80003fb8:	8f3a                	mv	t5,a4
    80003fba:	8eae                	mv	t4,a1
    80003fbc:	8322                	mv	t1,s0
    80003fbe:	002d9793          	slli	a5,s11,0x2
    80003fc2:	9dbe                	add	s11,s11,a5
    80003fc4:	50068663          	beqz	a3,800044d0 <mm+0x592>
    80003fc8:	4699                	li	a3,6
    80003fca:	02dfd6b3          	divu	a3,t6,a3
    80003fce:	00141713          	slli	a4,s0,0x1
    80003fd2:	00181493          	slli	s1,a6,0x1
    80003fd6:	00281a93          	slli	s5,a6,0x2
    80003fda:	9722                	add	a4,a4,s0
    80003fdc:	41b00533          	neg	a0,s11
    80003fe0:	003d9793          	slli	a5,s11,0x3
    80003fe4:	94c2                	add	s1,s1,a6
    80003fe6:	9ac2                	add	s5,s5,a6
    80003fe8:	00441593          	slli	a1,s0,0x4
    80003fec:	050e                	slli	a0,a0,0x3
    80003fee:	070e                	slli	a4,a4,0x3
    80003ff0:	00381413          	slli	s0,a6,0x3
    80003ff4:	00481a13          	slli	s4,a6,0x4
    80003ff8:	00581993          	slli	s3,a6,0x5
    80003ffc:	003f9813          	slli	a6,t6,0x3
    80004000:	00449913          	slli	s2,s1,0x4
    80004004:	8d9d                	sub	a1,a1,a5
    80004006:	fcc2                	sd	a6,120(sp)
    80004008:	ed2a                	sd	a0,152(sp)
    8000400a:	00f38833          	add	a6,t2,a5
    8000400e:	40f28533          	sub	a0,t0,a5
    80004012:	00f883b3          	add	t2,a7,a5
    80004016:	40f707b3          	sub	a5,a4,a5
    8000401a:	e13e                	sd	a5,128(sp)
    8000401c:	01cb8c33          	add	s8,s7,t3
    80004020:	e8c2                	sd	a6,80(sp)
    80004022:	005f1813          	slli	a6,t5,0x5
    80004026:	01cc0cb3          	add	s9,s8,t3
    8000402a:	f0c2                	sd	a6,96(sp)
    8000402c:	00531813          	slli	a6,t1,0x5
    80004030:	048e                	slli	s1,s1,0x3
    80004032:	0a8e                	slli	s5,s5,0x3
    80004034:	ecc2                	sd	a6,88(sp)
    80004036:	01cc8d33          	add	s10,s9,t3
    8000403a:	e92a                	sd	a0,144(sp)
    8000403c:	e52e                	sd	a1,136(sp)
    8000403e:	e802                	sd	zero,16(sp)
    80004040:	02d907b3          	mul	a5,s2,a3
    80004044:	00169b13          	slli	s6,a3,0x1
    80004048:	9b36                	add	s6,s6,a3
    8000404a:	0b12                	slli	s6,s6,0x4
    8000404c:	f8be                	sd	a5,112(sp)
    8000404e:	02cef7b3          	remu	a5,t4,a2
    80004052:	e4be                	sd	a5,72(sp)
    80004054:	440d8263          	beqz	s11,80004498 <mm+0x55a>
    80004058:	77e6                	ld	a5,120(sp)
    8000405a:	7f26                	ld	t5,104(sp)
    8000405c:	70c6                	ld	ra,112(sp)
    8000405e:	01778eb3          	add	t4,a5,s7
    80004062:	67ea                	ld	a5,152(sp)
    80004064:	017b0e33          	add	t3,s6,s7
    80004068:	4281                	li	t0,0
    8000406a:	00778333          	add	t1,a5,t2
    8000406e:	67ca                	ld	a5,144(sp)
    80004070:	007788b3          	add	a7,a5,t2
    80004074:	67aa                	ld	a5,136(sp)
    80004076:	00778833          	add	a6,a5,t2
    8000407a:	678a                	ld	a5,128(sp)
    8000407c:	00778533          	add	a0,a5,t2
    80004080:	87fa                	mv	a5,t5
    80004082:	00033a07          	fld	fs4,0(t1)
    80004086:	00833987          	fld	fs3,8(t1)
    8000408a:	01033907          	fld	fs2,16(t1)
    8000408e:	01833487          	fld	fs1,24(t1)
    80004092:	02033087          	fld	ft1,32(t1)
    80004096:	0008b407          	fld	fs0,0(a7)
    8000409a:	0088bf87          	fld	ft11,8(a7)
    8000409e:	0108bf07          	fld	ft10,16(a7)
    800040a2:	0188be87          	fld	ft9,24(a7)
    800040a6:	0208b007          	fld	ft0,32(a7)
    800040aa:	00083e07          	fld	ft8,0(a6)
    800040ae:	00883b07          	fld	fs6,8(a6)
    800040b2:	01083a87          	fld	fs5,16(a6)
    800040b6:	01883287          	fld	ft5,24(a6)
    800040ba:	02083607          	fld	fa2,32(a6)
    800040be:	00053207          	fld	ft4,0(a0)
    800040c2:	00853187          	fld	ft3,8(a0)
    800040c6:	01053107          	fld	ft2,16(a0)
    800040ca:	2d14                	fld	fa3,24(a0)
    800040cc:	311c                	fld	fa5,32(a0)
    800040ce:	2dcbf963          	bleu	t3,s7,800043a0 <mm+0x462>
    800040d2:	22f78353          	fmv.d	ft6,fa5
    800040d6:	85ea                	mv	a1,s10
    800040d8:	8666                	mv	a2,s9
    800040da:	86e2                	mv	a3,s8
    800040dc:	875e                	mv	a4,s7
    800040de:	8ff6                	mv	t6,t4
    800040e0:	2308                	fld	fa0,0(a4)
    800040e2:	228c                	fld	fa1,0(a3)
    800040e4:	0005b387          	fld	ft7,0(a1)
    800040e8:	2218                	fld	fa4,0(a2)
    800040ea:	0007bc07          	fld	fs8,0(a5)
    800040ee:	0087bb87          	fld	fs7,8(a5)
    800040f2:	0107b887          	fld	fa7,16(a5)
    800040f6:	2f9c                	fld	fa5,24(a5)
    800040f8:	0207b807          	fld	fa6,32(a5)
    800040fc:	a3857a43          	fmadd.d	fs4,fa0,fs8,fs4
    80004100:	9b7579c3          	fmadd.d	fs3,fa0,fs7,fs3
    80004104:	93157943          	fmadd.d	fs2,fa0,fa7,fs2
    80004108:	4af574c3          	fmadd.d	fs1,fa0,fa5,fs1
    8000410c:	0b0570c3          	fmadd.d	ft1,fa0,fa6,ft1
    80004110:	42bc7443          	fmadd.d	fs0,fs8,fa1,fs0
    80004114:	fabbffc3          	fmadd.d	ft11,fs7,fa1,ft11
    80004118:	f2b8ff43          	fmadd.d	ft10,fa7,fa1,ft10
    8000411c:	eab7fec3          	fmadd.d	ft9,fa5,fa1,ft9
    80004120:	02b87043          	fmadd.d	ft0,fa6,fa1,ft0
    80004124:	e2ec7e43          	fmadd.d	ft8,fs8,fa4,ft8
    80004128:	b2ebfb43          	fmadd.d	fs6,fs7,fa4,fs6
    8000412c:	aae8fac3          	fmadd.d	fs5,fa7,fa4,fs5
    80004130:	2ae7f2c3          	fmadd.d	ft5,fa5,fa4,ft5
    80004134:	227c7243          	fmadd.d	ft4,fs8,ft7,ft4
    80004138:	62e87743          	fmadd.d	fa4,fa6,fa4,fa2
    8000413c:	1a7bf1c3          	fmadd.d	ft3,fs7,ft7,ft3
    80004140:	1278f143          	fmadd.d	ft2,fa7,ft7,ft2
    80004144:	6a77f6c3          	fmadd.d	fa3,fa5,ft7,fa3
    80004148:	32787343          	fmadd.d	ft6,fa6,ft7,ft6
    8000414c:	00f40eb3          	add	t4,s0,a5
    80004150:	2708                	fld	fa0,8(a4)
    80004152:	268c                	fld	fa1,8(a3)
    80004154:	2610                	fld	fa2,8(a2)
    80004156:	259c                	fld	fa5,8(a1)
    80004158:	000ebc07          	fld	fs8,0(t4)
    8000415c:	008ebb87          	fld	fs7,8(t4)
    80004160:	010eb887          	fld	fa7,16(t4)
    80004164:	018eb807          	fld	fa6,24(t4)
    80004168:	020eb387          	fld	ft7,32(t4)
    8000416c:	a3857a43          	fmadd.d	fs4,fa0,fs8,fs4
    80004170:	9b7579c3          	fmadd.d	fs3,fa0,fs7,fs3
    80004174:	93157943          	fmadd.d	fs2,fa0,fa7,fs2
    80004178:	4b0574c3          	fmadd.d	fs1,fa0,fa6,fs1
    8000417c:	0a7570c3          	fmadd.d	ft1,fa0,ft7,ft1
    80004180:	42bc7443          	fmadd.d	fs0,fs8,fa1,fs0
    80004184:	fabbffc3          	fmadd.d	ft11,fs7,fa1,ft11
    80004188:	f2b8ff43          	fmadd.d	ft10,fa7,fa1,ft10
    8000418c:	eab87ec3          	fmadd.d	ft9,fa6,fa1,ft9
    80004190:	02b3f043          	fmadd.d	ft0,ft7,fa1,ft0
    80004194:	e2cc7e43          	fmadd.d	ft8,fs8,fa2,ft8
    80004198:	b2cbfb43          	fmadd.d	fs6,fs7,fa2,fs6
    8000419c:	aac8fac3          	fmadd.d	fs5,fa7,fa2,fs5
    800041a0:	2ac872c3          	fmadd.d	ft5,fa6,fa2,ft5
    800041a4:	72c3f743          	fmadd.d	fa4,ft7,fa2,fa4
    800041a8:	22fc7243          	fmadd.d	ft4,fs8,fa5,ft4
    800041ac:	1afbf1c3          	fmadd.d	ft3,fs7,fa5,ft3
    800041b0:	12f8f143          	fmadd.d	ft2,fa7,fa5,ft2
    800041b4:	6af876c3          	fmadd.d	fa3,fa6,fa5,fa3
    800041b8:	32f3f343          	fmadd.d	ft6,ft7,fa5,ft6
    800041bc:	00fa0eb3          	add	t4,s4,a5
    800041c0:	2b08                	fld	fa0,16(a4)
    800041c2:	2a8c                	fld	fa1,16(a3)
    800041c4:	2a10                	fld	fa2,16(a2)
    800041c6:	299c                	fld	fa5,16(a1)
    800041c8:	000ebb87          	fld	fs7,0(t4)
    800041cc:	008eb887          	fld	fa7,8(t4)
    800041d0:	010eb807          	fld	fa6,16(t4)
    800041d4:	018eb387          	fld	ft7,24(t4)
    800041d8:	020ebc07          	fld	fs8,32(t4)
    800041dc:	a3757a43          	fmadd.d	fs4,fa0,fs7,fs4
    800041e0:	9b1579c3          	fmadd.d	fs3,fa0,fa7,fs3
    800041e4:	72cc7743          	fmadd.d	fa4,fs8,fa2,fa4
    800041e8:	32fc7343          	fmadd.d	ft6,fs8,fa5,ft6
    800041ec:	93057943          	fmadd.d	fs2,fa0,fa6,fs2
    800041f0:	4a7574c3          	fmadd.d	fs1,fa0,ft7,fs1
    800041f4:	0b8570c3          	fmadd.d	ft1,fa0,fs8,ft1
    800041f8:	42bbf443          	fmadd.d	fs0,fs7,fa1,fs0
    800041fc:	fab8ffc3          	fmadd.d	ft11,fa7,fa1,ft11
    80004200:	f2b87f43          	fmadd.d	ft10,fa6,fa1,ft10
    80004204:	eab3fec3          	fmadd.d	ft9,ft7,fa1,ft9
    80004208:	02bc7043          	fmadd.d	ft0,fs8,fa1,ft0
    8000420c:	e2cbfe43          	fmadd.d	ft8,fs7,fa2,ft8
    80004210:	b2c8fb43          	fmadd.d	fs6,fa7,fa2,fs6
    80004214:	aac87ac3          	fmadd.d	fs5,fa6,fa2,fs5
    80004218:	2ac3f2c3          	fmadd.d	ft5,ft7,fa2,ft5
    8000421c:	22fbf243          	fmadd.d	ft4,fs7,fa5,ft4
    80004220:	1af8f1c3          	fmadd.d	ft3,fa7,fa5,ft3
    80004224:	12f87143          	fmadd.d	ft2,fa6,fa5,ft2
    80004228:	6af3f6c3          	fmadd.d	fa3,ft7,fa5,fa3
    8000422c:	00978eb3          	add	t4,a5,s1
    80004230:	2f08                	fld	fa0,24(a4)
    80004232:	000ebb87          	fld	fs7,0(t4)
    80004236:	008eb887          	fld	fa7,8(t4)
    8000423a:	010eb807          	fld	fa6,16(t4)
    8000423e:	018eb387          	fld	ft7,24(t4)
    80004242:	020ebc07          	fld	fs8,32(t4)
    80004246:	2e8c                	fld	fa1,24(a3)
    80004248:	2e10                	fld	fa2,24(a2)
    8000424a:	2d9c                	fld	fa5,24(a1)
    8000424c:	a3757a43          	fmadd.d	fs4,fa0,fs7,fs4
    80004250:	9b1579c3          	fmadd.d	fs3,fa0,fa7,fs3
    80004254:	22fbf243          	fmadd.d	ft4,fs7,fa5,ft4
    80004258:	1af8f1c3          	fmadd.d	ft3,fa7,fa5,ft3
    8000425c:	0b8570c3          	fmadd.d	ft1,fa0,fs8,ft1
    80004260:	42bbf443          	fmadd.d	fs0,fs7,fa1,fs0
    80004264:	fab8ffc3          	fmadd.d	ft11,fa7,fa1,ft11
    80004268:	02bc7043          	fmadd.d	ft0,fs8,fa1,ft0
    8000426c:	e2cbfe43          	fmadd.d	ft8,fs7,fa2,ft8
    80004270:	b2c8fb43          	fmadd.d	fs6,fa7,fa2,fs6
    80004274:	12f87143          	fmadd.d	ft2,fa6,fa5,ft2
    80004278:	6af3f6c3          	fmadd.d	fa3,ft7,fa5,fa3
    8000427c:	93057943          	fmadd.d	fs2,fa0,fa6,fs2
    80004280:	4a7574c3          	fmadd.d	fs1,fa0,ft7,fs1
    80004284:	f2b87f43          	fmadd.d	ft10,fa6,fa1,ft10
    80004288:	eab3fec3          	fmadd.d	ft9,ft7,fa1,ft9
    8000428c:	aac87ac3          	fmadd.d	fs5,fa6,fa2,fs5
    80004290:	2ac3f2c3          	fmadd.d	ft5,ft7,fa2,ft5
    80004294:	32fc77c3          	fmadd.d	fa5,fs8,fa5,ft6
    80004298:	72cc7643          	fmadd.d	fa2,fs8,fa2,fa4
    8000429c:	00f98eb3          	add	t4,s3,a5
    800042a0:	3218                	fld	fa4,32(a2)
    800042a2:	0205bd87          	fld	fs11,32(a1)
    800042a6:	3308                	fld	fa0,32(a4)
    800042a8:	328c                	fld	fa1,32(a3)
    800042aa:	020eb307          	fld	ft6,32(t4)
    800042ae:	000ebb87          	fld	fs7,0(t4)
    800042b2:	008eb887          	fld	fa7,8(t4)
    800042b6:	010ebd07          	fld	fs10,16(t4)
    800042ba:	018ebc87          	fld	fs9,24(t4)
    800042be:	a3757a43          	fmadd.d	fs4,fa0,fs7,fs4
    800042c2:	9b1579c3          	fmadd.d	fs3,fa0,fa7,fs3
    800042c6:	93a57943          	fmadd.d	fs2,fa0,fs10,fs2
    800042ca:	4b9574c3          	fmadd.d	fs1,fa0,fs9,fs1
    800042ce:	42bbf443          	fmadd.d	fs0,fs7,fa1,fs0
    800042d2:	0a657543          	fmadd.d	fa0,fa0,ft6,ft1
    800042d6:	fab8ffc3          	fmadd.d	ft11,fa7,fa1,ft11
    800042da:	f2bd7f43          	fmadd.d	ft10,fs10,fa1,ft10
    800042de:	eabcfec3          	fmadd.d	ft9,fs9,fa1,ft9
    800042e2:	e2ebfe43          	fmadd.d	ft8,fs7,fa4,ft8
    800042e6:	02b375c3          	fmadd.d	fa1,ft6,fa1,ft0
    800042ea:	b2e8fb43          	fmadd.d	fs6,fa7,fa4,fs6
    800042ee:	aaed7ac3          	fmadd.d	fs5,fs10,fa4,fs5
    800042f2:	2aecf2c3          	fmadd.d	ft5,fs9,fa4,ft5
    800042f6:	62e37643          	fmadd.d	fa2,ft6,fa4,fa2
    800042fa:	23bbfbc3          	fmadd.d	fs7,fs7,fs11,ft4
    800042fe:	1bb8f8c3          	fmadd.d	fa7,fa7,fs11,ft3
    80004302:	13bd7d43          	fmadd.d	fs10,fs10,fs11,ft2
    80004306:	6bbcfcc3          	fmadd.d	fs9,fs9,fs11,fa3
    8000430a:	7bb377c3          	fmadd.d	fa5,ft6,fs11,fa5
    8000430e:	01578eb3          	add	t4,a5,s5
    80004312:	02873087          	fld	ft1,40(a4)
    80004316:	0286b007          	fld	ft0,40(a3)
    8000431a:	3618                	fld	fa4,40(a2)
    8000431c:	0285bd87          	fld	fs11,40(a1)
    80004320:	000eb207          	fld	ft4,0(t4)
    80004324:	008eb187          	fld	ft3,8(t4)
    80004328:	010eb107          	fld	ft2,16(t4)
    8000432c:	018eb687          	fld	fa3,24(t4)
    80004330:	020eb307          	fld	ft6,32(t4)
    80004334:	03070713          	addi	a4,a4,48
    80004338:	a240fa43          	fmadd.d	fs4,ft1,ft4,fs4
    8000433c:	9a30f9c3          	fmadd.d	fs3,ft1,ft3,fs3
    80004340:	9220f943          	fmadd.d	fs2,ft1,ft2,fs2
    80004344:	4ad0f4c3          	fmadd.d	fs1,ft1,fa3,fs1
    80004348:	42027443          	fmadd.d	fs0,ft4,ft0,fs0
    8000434c:	fa01ffc3          	fmadd.d	ft11,ft3,ft0,ft11
    80004350:	f2017f43          	fmadd.d	ft10,ft2,ft0,ft10
    80004354:	ea06fec3          	fmadd.d	ft9,fa3,ft0,ft9
    80004358:	5260f0c3          	fmadd.d	ft1,ft1,ft6,fa0
    8000435c:	5a037043          	fmadd.d	ft0,ft6,ft0,fa1
    80004360:	e2e27e43          	fmadd.d	ft8,ft4,fa4,ft8
    80004364:	b2e1fb43          	fmadd.d	fs6,ft3,fa4,fs6
    80004368:	aae17ac3          	fmadd.d	fs5,ft2,fa4,fs5
    8000436c:	2ae6f2c3          	fmadd.d	ft5,fa3,fa4,ft5
    80004370:	62e37643          	fmadd.d	fa2,ft6,fa4,fa2
    80004374:	bbb27243          	fmadd.d	ft4,ft4,fs11,fs7
    80004378:	8bb1f1c3          	fmadd.d	ft3,ft3,fs11,fa7
    8000437c:	d3b17143          	fmadd.d	ft2,ft2,fs11,fs10
    80004380:	cbb6f6c3          	fmadd.d	fa3,fa3,fs11,fs9
    80004384:	7bb37343          	fmadd.d	ft6,ft6,fs11,fa5
    80004388:	97ca                	add	a5,a5,s2
    8000438a:	03068693          	addi	a3,a3,48
    8000438e:	03060613          	addi	a2,a2,48
    80004392:	03058593          	addi	a1,a1,48
    80004396:	d5c765e3          	bltu	a4,t3,800040e0 <mm+0x1a2>
    8000439a:	226307d3          	fmv.d	fa5,ft6
    8000439e:	8efe                	mv	t4,t6
    800043a0:	01e087b3          	add	a5,ra,t5
    800043a4:	09de7763          	bleu	t4,t3,80004432 <mm+0x4f4>
    800043a8:	018b05b3          	add	a1,s6,s8
    800043ac:	019b0633          	add	a2,s6,s9
    800043b0:	01ab06b3          	add	a3,s6,s10
    800043b4:	8772                	mv	a4,t3
    800043b6:	00073307          	fld	ft6,0(a4)
    800043ba:	2188                	fld	fa0,0(a1)
    800043bc:	220c                	fld	fa1,0(a2)
    800043be:	2298                	fld	fa4,0(a3)
    800043c0:	0007bc07          	fld	fs8,0(a5)
    800043c4:	0087bb87          	fld	fs7,8(a5)
    800043c8:	0107b887          	fld	fa7,16(a5)
    800043cc:	0187b807          	fld	fa6,24(a5)
    800043d0:	0207b387          	fld	ft7,32(a5)
    800043d4:	0721                	addi	a4,a4,8
    800043d6:	a3837a43          	fmadd.d	fs4,ft6,fs8,fs4
    800043da:	9b7379c3          	fmadd.d	fs3,ft6,fs7,fs3
    800043de:	93137943          	fmadd.d	fs2,ft6,fa7,fs2
    800043e2:	4b0374c3          	fmadd.d	fs1,ft6,fa6,fs1
    800043e6:	0a7370c3          	fmadd.d	ft1,ft6,ft7,ft1
    800043ea:	42ac7443          	fmadd.d	fs0,fs8,fa0,fs0
    800043ee:	faabffc3          	fmadd.d	ft11,fs7,fa0,ft11
    800043f2:	f2a8ff43          	fmadd.d	ft10,fa7,fa0,ft10
    800043f6:	eaa87ec3          	fmadd.d	ft9,fa6,fa0,ft9
    800043fa:	02a3f043          	fmadd.d	ft0,ft7,fa0,ft0
    800043fe:	e2bc7e43          	fmadd.d	ft8,fs8,fa1,ft8
    80004402:	b2bbfb43          	fmadd.d	fs6,fs7,fa1,fs6
    80004406:	aab8fac3          	fmadd.d	fs5,fa7,fa1,fs5
    8000440a:	2ab872c3          	fmadd.d	ft5,fa6,fa1,ft5
    8000440e:	62b3f643          	fmadd.d	fa2,ft7,fa1,fa2
    80004412:	22ec7243          	fmadd.d	ft4,fs8,fa4,ft4
    80004416:	1aebf1c3          	fmadd.d	ft3,fs7,fa4,ft3
    8000441a:	12e8f143          	fmadd.d	ft2,fa7,fa4,ft2
    8000441e:	6ae876c3          	fmadd.d	fa3,fa6,fa4,fa3
    80004422:	7ae3f7c3          	fmadd.d	fa5,ft7,fa4,fa5
    80004426:	97a2                	add	a5,a5,s0
    80004428:	05a1                	addi	a1,a1,8
    8000442a:	0621                	addi	a2,a2,8
    8000442c:	06a1                	addi	a3,a3,8
    8000442e:	f9d764e3          	bltu	a4,t4,800043b6 <mm+0x478>
    80004432:	01433027          	fsd	fs4,0(t1)
    80004436:	01333427          	fsd	fs3,8(t1)
    8000443a:	01233827          	fsd	fs2,16(t1)
    8000443e:	00933c27          	fsd	fs1,24(t1)
    80004442:	02133027          	fsd	ft1,32(t1)
    80004446:	0088b027          	fsd	fs0,0(a7)
    8000444a:	01f8b427          	fsd	ft11,8(a7)
    8000444e:	01e8b827          	fsd	ft10,16(a7)
    80004452:	01d8bc27          	fsd	ft9,24(a7)
    80004456:	0208b027          	fsd	ft0,32(a7)
    8000445a:	01c83027          	fsd	ft8,0(a6)
    8000445e:	01683427          	fsd	fs6,8(a6)
    80004462:	01583827          	fsd	fs5,16(a6)
    80004466:	00583c27          	fsd	ft5,24(a6)
    8000446a:	02c83027          	fsd	fa2,32(a6)
    8000446e:	00453027          	fsd	ft4,0(a0)
    80004472:	00353427          	fsd	ft3,8(a0)
    80004476:	00253827          	fsd	ft2,16(a0)
    8000447a:	ad14                	fsd	fa3,24(a0)
    8000447c:	b11c                	fsd	fa5,32(a0)
    8000447e:	0295                	addi	t0,t0,5
    80004480:	02830313          	addi	t1,t1,40
    80004484:	02888893          	addi	a7,a7,40
    80004488:	02880813          	addi	a6,a6,40
    8000448c:	02850513          	addi	a0,a0,40
    80004490:	028f0f13          	addi	t5,t5,40
    80004494:	bfb2e6e3          	bltu	t0,s11,80004080 <mm+0x142>
    80004498:	7782                	ld	a5,32(sp)
    8000449a:	6342                	ld	t1,16(sp)
    8000449c:	7762                	ld	a4,56(sp)
    8000449e:	e03e                	sd	a5,0(sp)
    800044a0:	6806                	ld	a6,64(sp)
    800044a2:	67c6                	ld	a5,80(sp)
    800044a4:	7642                	ld	a2,48(sp)
    800044a6:	65a6                	ld	a1,72(sp)
    800044a8:	0311                	addi	t1,t1,4
    800044aa:	889e                	mv	a7,t2
    800044ac:	86de                	mv	a3,s7
    800044ae:	4511                	li	a0,4
    800044b0:	ec1e                	sd	t2,24(sp)
    800044b2:	e81a                	sd	t1,16(sp)
    800044b4:	b4dfd0ef          	jal	ra,80002000 <mm_naive>
    800044b8:	7786                	ld	a5,96(sp)
    800044ba:	6766                	ld	a4,88(sp)
    800044bc:	63e2                	ld	t2,24(sp)
    800044be:	9bbe                	add	s7,s7,a5
    800044c0:	9c3e                	add	s8,s8,a5
    800044c2:	9cbe                	add	s9,s9,a5
    800044c4:	9d3e                	add	s10,s10,a5
    800044c6:	6342                	ld	t1,16(sp)
    800044c8:	77a2                	ld	a5,40(sp)
    800044ca:	93ba                	add	t2,t2,a4
    800044cc:	b8f364e3          	bltu	t1,a5,80004054 <mm+0x116>
    800044d0:	76a2                	ld	a3,40(sp)
    800044d2:	778a                	ld	a5,160(sp)
    800044d4:	742a                	ld	s0,168(sp)
    800044d6:	754a                	ld	a0,176(sp)
    800044d8:	02f688b3          	mul	a7,a3,a5
    800044dc:	7782                	ld	a5,32(sp)
    800044de:	8d15                	sub	a0,a0,a3
    800044e0:	6806                	ld	a6,64(sp)
    800044e2:	f33e                	sd	a5,416(sp)
    800044e4:	7762                	ld	a4,56(sp)
    800044e6:	77a6                	ld	a5,104(sp)
    800044e8:	7642                	ld	a2,48(sp)
    800044ea:	75ea                	ld	a1,184(sp)
    800044ec:	60fa                	ld	ra,408(sp)
    800044ee:	028686b3          	mul	a3,a3,s0
    800044f2:	642e                	ld	s0,200(sp)
    800044f4:	64ba                	ld	s1,392(sp)
    800044f6:	691a                	ld	s2,384(sp)
    800044f8:	98a2                	add	a7,a7,s0
    800044fa:	640e                	ld	s0,192(sp)
    800044fc:	79f6                	ld	s3,376(sp)
    800044fe:	7a56                	ld	s4,368(sp)
    80004500:	7ab6                	ld	s5,360(sp)
    80004502:	7b16                	ld	s6,352(sp)
    80004504:	96a2                	add	a3,a3,s0
    80004506:	645a                	ld	s0,400(sp)
    80004508:	6bf6                	ld	s7,344(sp)
    8000450a:	6c56                	ld	s8,336(sp)
    8000450c:	6cb6                	ld	s9,328(sp)
    8000450e:	6d16                	ld	s10,320(sp)
    80004510:	7df2                	ld	s11,312(sp)
    80004512:	3432                	fld	fs0,296(sp)
    80004514:	3492                	fld	fs1,288(sp)
    80004516:	2972                	fld	fs2,280(sp)
    80004518:	29d2                	fld	fs3,272(sp)
    8000451a:	2a32                	fld	fs4,264(sp)
    8000451c:	2a92                	fld	fs5,256(sp)
    8000451e:	3b6e                	fld	fs6,248(sp)
    80004520:	3bce                	fld	fs7,240(sp)
    80004522:	3c2e                	fld	fs8,232(sp)
    80004524:	3c8e                	fld	fs9,224(sp)
    80004526:	2d6e                	fld	fs10,216(sp)
    80004528:	2dce                	fld	fs11,208(sp)
    8000452a:	611d                	addi	sp,sp,416
    8000452c:	ad5fd06f          	j	80002000 <mm_naive>
    80004530:	7402                	ld	s0,32(sp)
    80004532:	60fa                	ld	ra,408(sp)
    80004534:	64ba                	ld	s1,392(sp)
    80004536:	f322                	sd	s0,416(sp)
    80004538:	645a                	ld	s0,400(sp)
    8000453a:	691a                	ld	s2,384(sp)
    8000453c:	79f6                	ld	s3,376(sp)
    8000453e:	7a56                	ld	s4,368(sp)
    80004540:	7ab6                	ld	s5,360(sp)
    80004542:	7b16                	ld	s6,352(sp)
    80004544:	6bf6                	ld	s7,344(sp)
    80004546:	6c56                	ld	s8,336(sp)
    80004548:	6cb6                	ld	s9,328(sp)
    8000454a:	6d16                	ld	s10,320(sp)
    8000454c:	7df2                	ld	s11,312(sp)
    8000454e:	3432                	fld	fs0,296(sp)
    80004550:	3492                	fld	fs1,288(sp)
    80004552:	2972                	fld	fs2,280(sp)
    80004554:	29d2                	fld	fs3,272(sp)
    80004556:	2a32                	fld	fs4,264(sp)
    80004558:	2a92                	fld	fs5,256(sp)
    8000455a:	3b6e                	fld	fs6,248(sp)
    8000455c:	3bce                	fld	fs7,240(sp)
    8000455e:	3c2e                	fld	fs8,232(sp)
    80004560:	3c8e                	fld	fs9,224(sp)
    80004562:	2d6e                	fld	fs10,216(sp)
    80004564:	2dce                	fld	fs11,208(sp)
    80004566:	611d                	addi	sp,sp,416
    80004568:	bcdfd06f          	j	80002134 <mm_cb>

000000008000456c <barrier>:
    8000456c:	0ff0000f          	fence
    80004570:	00022703          	lw	a4,0(tp) # 0 <threadsense.3530>
    80004574:	a5418693          	addi	a3,gp,-1452 # 800052dc <count.3529>
    80004578:	4605                	li	a2,1
    8000457a:	00173713          	seqz	a4,a4
    8000457e:	00e22023          	sw	a4,0(tp) # 0 <threadsense.3530>
    80004582:	0f50000f          	fence	iorw,ow
    80004586:	04c6a72f          	amoadd.w.aq	a4,a2,(a3)
    8000458a:	357d                	addiw	a0,a0,-1
    8000458c:	2701                	sext.w	a4,a4
    8000458e:	00e50c63          	beq	a0,a4,800045a6 <barrier+0x3a>
    80004592:	00022683          	lw	a3,0(tp) # 0 <threadsense.3530>
    80004596:	a5018713          	addi	a4,gp,-1456 # 800052d8 <sense.3528>
    8000459a:	431c                	lw	a5,0(a4)
    8000459c:	fef69fe3          	bne	a3,a5,8000459a <barrier+0x2e>
    800045a0:	0ff0000f          	fence
    800045a4:	8082                	ret
    800045a6:	00022783          	lw	a5,0(tp) # 0 <threadsense.3530>
    800045aa:	a401aa23          	sw	zero,-1452(gp) # 800052dc <count.3529>
    800045ae:	a4f1a823          	sw	a5,-1456(gp) # 800052d8 <sense.3528>
    800045b2:	b7fd                	j	800045a0 <barrier+0x34>

00000000800045b4 <thread_entry>:
    800045b4:	7119                	addi	sp,sp,-128
    800045b6:	77fd                	lui	a5,0xfffff
    800045b8:	f8a2                	sd	s0,112(sp)
    800045ba:	f4a6                	sd	s1,104(sp)
    800045bc:	f0ca                	sd	s2,96(sp)
    800045be:	ecce                	sd	s3,88(sp)
    800045c0:	e8d2                	sd	s4,80(sp)
    800045c2:	e4d6                	sd	s5,72(sp)
    800045c4:	e0da                	sd	s6,64(sp)
    800045c6:	fc86                	sd	ra,120(sp)
    800045c8:	fc5e                	sd	s7,56(sp)
    800045ca:	f862                	sd	s8,48(sp)
    800045cc:	f466                	sd	s9,40(sp)
    800045ce:	f06a                	sd	s10,32(sp)
    800045d0:	ec6e                	sd	s11,24(sp)
    800045d2:	0100                	addi	s0,sp,128
    800045d4:	df078713          	addi	a4,a5,-528 # ffffffffffffedf0 <__global_pointer$+0xffffffff7fff9568>
    800045d8:	d3078793          	addi	a5,a5,-720
    800045dc:	913a                	add	sp,sp,a4
    800045de:	01010a13          	addi	s4,sp,16
    800045e2:	913e                	add	sp,sp,a5
    800045e4:	01010993          	addi	s3,sp,16
    800045e8:	6885                	lui	a7,0x1
    800045ea:	913e                	add	sp,sp,a5
    800045ec:	37ab77b7          	lui	a5,0x37ab7
    800045f0:	20088893          	addi	a7,a7,512 # 1200 <buflen.2836+0x1180>
    800045f4:	078a                	slli	a5,a5,0x2
    800045f6:	4605                	li	a2,1
    800045f8:	8aaa                	mv	s5,a0
    800045fa:	8b2e                	mv	s6,a1
    800045fc:	01010913          	addi	s2,sp,16
    80004600:	84d2                	mv	s1,s4
    80004602:	98d2                	add	a7,a7,s4
    80004604:	8552                	mv	a0,s4
    80004606:	eef78793          	addi	a5,a5,-273 # 37ab6eef <buflen.2836+0x37ab6e6f>
    8000460a:	167a                	slli	a2,a2,0x3e
    8000460c:	0c050813          	addi	a6,a0,192
    80004610:	0017d693          	srli	a3,a5,0x1
    80004614:	00f6c733          	xor	a4,a3,a5
    80004618:	177a                	slli	a4,a4,0x3e
    8000461a:	8f71                	and	a4,a4,a2
    8000461c:	00d767b3          	or	a5,a4,a3
    80004620:	0017d693          	srli	a3,a5,0x1
    80004624:	00f6c733          	xor	a4,a3,a5
    80004628:	177a                	slli	a4,a4,0x3e
    8000462a:	8f71                	and	a4,a4,a2
    8000462c:	d227f7d3          	fcvt.d.l	fa5,a5
    80004630:	00d767b3          	or	a5,a4,a3
    80004634:	0017d693          	srli	a3,a5,0x1
    80004638:	00f6c733          	xor	a4,a3,a5
    8000463c:	177a                	slli	a4,a4,0x3e
    8000463e:	8f71                	and	a4,a4,a2
    80004640:	a11c                	fsd	fa5,0(a0)
    80004642:	d227f7d3          	fcvt.d.l	fa5,a5
    80004646:	00d767b3          	or	a5,a4,a3
    8000464a:	0017d693          	srli	a3,a5,0x1
    8000464e:	00f6c733          	xor	a4,a3,a5
    80004652:	177a                	slli	a4,a4,0x3e
    80004654:	8f71                	and	a4,a4,a2
    80004656:	a51c                	fsd	fa5,8(a0)
    80004658:	d227f7d3          	fcvt.d.l	fa5,a5
    8000465c:	00d767b3          	or	a5,a4,a3
    80004660:	0017d693          	srli	a3,a5,0x1
    80004664:	00f6c733          	xor	a4,a3,a5
    80004668:	177a                	slli	a4,a4,0x3e
    8000466a:	8f71                	and	a4,a4,a2
    8000466c:	a91c                	fsd	fa5,16(a0)
    8000466e:	d227f7d3          	fcvt.d.l	fa5,a5
    80004672:	00d767b3          	or	a5,a4,a3
    80004676:	0017d693          	srli	a3,a5,0x1
    8000467a:	00f6c733          	xor	a4,a3,a5
    8000467e:	177a                	slli	a4,a4,0x3e
    80004680:	8f71                	and	a4,a4,a2
    80004682:	ad1c                	fsd	fa5,24(a0)
    80004684:	d227f7d3          	fcvt.d.l	fa5,a5
    80004688:	00d767b3          	or	a5,a4,a3
    8000468c:	0017d693          	srli	a3,a5,0x1
    80004690:	00f6c733          	xor	a4,a3,a5
    80004694:	177a                	slli	a4,a4,0x3e
    80004696:	8f71                	and	a4,a4,a2
    80004698:	b11c                	fsd	fa5,32(a0)
    8000469a:	d227f7d3          	fcvt.d.l	fa5,a5
    8000469e:	00d767b3          	or	a5,a4,a3
    800046a2:	0017d693          	srli	a3,a5,0x1
    800046a6:	00f6c733          	xor	a4,a3,a5
    800046aa:	b51c                	fsd	fa5,40(a0)
    800046ac:	177a                	slli	a4,a4,0x3e
    800046ae:	d227f7d3          	fcvt.d.l	fa5,a5
    800046b2:	8f71                	and	a4,a4,a2
    800046b4:	00d767b3          	or	a5,a4,a3
    800046b8:	b91c                	fsd	fa5,48(a0)
    800046ba:	d227f7d3          	fcvt.d.l	fa5,a5
    800046be:	00850593          	addi	a1,a0,8
    800046c2:	04050513          	addi	a0,a0,64
    800046c6:	b99c                	fsd	fa5,48(a1)
    800046c8:	f4a814e3          	bne	a6,a0,80004610 <thread_entry+0x5c>
    800046cc:	f50890e3          	bne	a7,a6,8000460c <thread_entry+0x58>
    800046d0:	6885                	lui	a7,0x1
    800046d2:	2c088893          	addi	a7,a7,704 # 12c0 <buflen.2836+0x1240>
    800046d6:	4605                	li	a2,1
    800046d8:	98ce                	add	a7,a7,s3
    800046da:	85ce                	mv	a1,s3
    800046dc:	167a                	slli	a2,a2,0x3e
    800046de:	0017d693          	srli	a3,a5,0x1
    800046e2:	00f6c733          	xor	a4,a3,a5
    800046e6:	177a                	slli	a4,a4,0x3e
    800046e8:	8f71                	and	a4,a4,a2
    800046ea:	00d767b3          	or	a5,a4,a3
    800046ee:	d227f7d3          	fcvt.d.l	fa5,a5
    800046f2:	0c858813          	addi	a6,a1,200
    800046f6:	05a1                	addi	a1,a1,8
    800046f8:	fef5bc27          	fsd	fa5,-8(a1)
    800046fc:	0017d693          	srli	a3,a5,0x1
    80004700:	00f6c733          	xor	a4,a3,a5
    80004704:	177a                	slli	a4,a4,0x3e
    80004706:	8f71                	and	a4,a4,a2
    80004708:	00d767b3          	or	a5,a4,a3
    8000470c:	0017d693          	srli	a3,a5,0x1
    80004710:	00f6c733          	xor	a4,a3,a5
    80004714:	177a                	slli	a4,a4,0x3e
    80004716:	8f71                	and	a4,a4,a2
    80004718:	d227f7d3          	fcvt.d.l	fa5,a5
    8000471c:	00d767b3          	or	a5,a4,a3
    80004720:	0017d693          	srli	a3,a5,0x1
    80004724:	00f6c733          	xor	a4,a3,a5
    80004728:	177a                	slli	a4,a4,0x3e
    8000472a:	8f71                	and	a4,a4,a2
    8000472c:	a19c                	fsd	fa5,0(a1)
    8000472e:	d227f7d3          	fcvt.d.l	fa5,a5
    80004732:	00d767b3          	or	a5,a4,a3
    80004736:	0017d693          	srli	a3,a5,0x1
    8000473a:	00f6c733          	xor	a4,a3,a5
    8000473e:	177a                	slli	a4,a4,0x3e
    80004740:	8f71                	and	a4,a4,a2
    80004742:	a59c                	fsd	fa5,8(a1)
    80004744:	d227f7d3          	fcvt.d.l	fa5,a5
    80004748:	00d767b3          	or	a5,a4,a3
    8000474c:	0017d693          	srli	a3,a5,0x1
    80004750:	00f6c733          	xor	a4,a3,a5
    80004754:	177a                	slli	a4,a4,0x3e
    80004756:	8f71                	and	a4,a4,a2
    80004758:	a99c                	fsd	fa5,16(a1)
    8000475a:	d227f7d3          	fcvt.d.l	fa5,a5
    8000475e:	00d767b3          	or	a5,a4,a3
    80004762:	0017d693          	srli	a3,a5,0x1
    80004766:	00f6c733          	xor	a4,a3,a5
    8000476a:	177a                	slli	a4,a4,0x3e
    8000476c:	8f71                	and	a4,a4,a2
    8000476e:	ad9c                	fsd	fa5,24(a1)
    80004770:	d227f7d3          	fcvt.d.l	fa5,a5
    80004774:	00d767b3          	or	a5,a4,a3
    80004778:	0017d693          	srli	a3,a5,0x1
    8000477c:	00f6c733          	xor	a4,a3,a5
    80004780:	177a                	slli	a4,a4,0x3e
    80004782:	8f71                	and	a4,a4,a2
    80004784:	b19c                	fsd	fa5,32(a1)
    80004786:	d227f7d3          	fcvt.d.l	fa5,a5
    8000478a:	00d767b3          	or	a5,a4,a3
    8000478e:	0017d693          	srli	a3,a5,0x1
    80004792:	00f6c733          	xor	a4,a3,a5
    80004796:	b59c                	fsd	fa5,40(a1)
    80004798:	177a                	slli	a4,a4,0x3e
    8000479a:	d227f7d3          	fcvt.d.l	fa5,a5
    8000479e:	8f71                	and	a4,a4,a2
    800047a0:	00d767b3          	or	a5,a4,a3
    800047a4:	b99c                	fsd	fa5,48(a1)
    800047a6:	d227f7d3          	fcvt.d.l	fa5,a5
    800047aa:	00858513          	addi	a0,a1,8
    800047ae:	04058593          	addi	a1,a1,64
    800047b2:	b91c                	fsd	fa5,48(a0)
    800047b4:	f4b814e3          	bne	a6,a1,800046fc <thread_entry+0x148>
    800047b8:	f30893e3          	bne	a7,a6,800046de <thread_entry+0x12a>
    800047bc:	6605                	lui	a2,0x1
    800047be:	2c060613          	addi	a2,a2,704 # 12c0 <buflen.2836+0x1240>
    800047c2:	4581                	li	a1,0
    800047c4:	854a                	mv	a0,s2
    800047c6:	6ee000ef          	jal	ra,80004eb4 <memset>
    800047ca:	4ba1                	li	s7,8
    800047cc:	4d65                	li	s10,25
    800047ce:	b0202c73          	csrr	s8,minstret
    800047d2:	b0002cf3          	csrr	s9,mcycle
    800047d6:	4865                	li	a6,25
    800047d8:	e06a                	sd	s10,0(sp)
    800047da:	88ca                	mv	a7,s2
    800047dc:	87ce                	mv	a5,s3
    800047de:	4761                	li	a4,24
    800047e0:	86d2                	mv	a3,s4
    800047e2:	4661                	li	a2,24
    800047e4:	45e5                	li	a1,25
    800047e6:	4561                	li	a0,24
    800047e8:	f56ff0ef          	jal	ra,80003f3e <mm>
    800047ec:	b0202df3          	csrr	s11,minstret
    800047f0:	b00027f3          	csrr	a5,mcycle
    800047f4:	3bfd                	addiw	s7,s7,-1
    800047f6:	fc0b9ce3          	bnez	s7,800047ce <thread_entry+0x21a>
    800047fa:	41978cb3          	sub	s9,a5,s9
    800047fe:	0ff0000f          	fence
    80004802:	47e1                	li	a5,24
    80004804:	48e1                	li	a7,24
    80004806:	4865                	li	a6,25
    80004808:	4719                	li	a4,6
    8000480a:	4695                	li	a3,5
    8000480c:	4611                	li	a2,4
    8000480e:	85d6                	mv	a1,s5
    80004810:	00001517          	auipc	a0,0x1
    80004814:	88850513          	addi	a0,a0,-1912 # 80005098 <main+0x2c>
    80004818:	5e8000ef          	jal	ra,80004e00 <printf>
    8000481c:	418d863b          	subw	a2,s11,s8
    80004820:	85d6                	mv	a1,s5
    80004822:	00001517          	auipc	a0,0x1
    80004826:	8a650513          	addi	a0,a0,-1882 # 800050c8 <main+0x5c>
    8000482a:	5d6000ef          	jal	ra,80004e00 <printf>
    8000482e:	000c861b          	sext.w	a2,s9
    80004832:	85d6                	mv	a1,s5
    80004834:	00001517          	auipc	a0,0x1
    80004838:	8ac50513          	addi	a0,a0,-1876 # 800050e0 <main+0x74>
    8000483c:	5c4000ef          	jal	ra,80004e00 <printf>
    80004840:	661d                	lui	a2,0x7
    80004842:	08060613          	addi	a2,a2,128 # 7080 <buflen.2836+0x7000>
    80004846:	85d6                	mv	a1,s5
    80004848:	00001517          	auipc	a0,0x1
    8000484c:	8a850513          	addi	a0,a0,-1880 # 800050f0 <main+0x84>
    80004850:	5b0000ef          	jal	ra,80004e00 <printf>
    80004854:	01b77637          	lui	a2,0x1b77
    80004858:	40060613          	addi	a2,a2,1024 # 1b77400 <buflen.2836+0x1b77380>
    8000485c:	03965633          	divu	a2,a2,s9
    80004860:	85d6                	mv	a1,s5
    80004862:	00001517          	auipc	a0,0x1
    80004866:	89e50513          	addi	a0,a0,-1890 # 80005100 <main+0x94>
    8000486a:	596000ef          	jal	ra,80004e00 <printf>
    8000486e:	6e05                	lui	t3,0x1
    80004870:	4601                	li	a2,0
    80004872:	00001797          	auipc	a5,0x1
    80004876:	8167b507          	fld	fa0,-2026(a5) # 80005088 <main+0x1c>
    8000487a:	00001797          	auipc	a5,0x1
    8000487e:	8167b587          	fld	fa1,-2026(a5) # 80005090 <main+0x24>
    80004882:	2c0e0e13          	addi	t3,t3,704 # 12c0 <buflen.2836+0x1240>
    80004886:	4ee5                	li	t4,25
    80004888:	4f61                	li	t5,24
    8000488a:	88ce                	mv	a7,s3
    8000488c:	834a                	mv	t1,s2
    8000488e:	4681                	li	a3,0
    80004890:	f20007d3          	fmv.d.x	fa5,zero
    80004894:	01c88833          	add	a6,a7,t3
    80004898:	85c6                	mv	a1,a7
    8000489a:	8526                	mv	a0,s1
    8000489c:	2114                	fld	fa3,0(a0)
    8000489e:	2198                	fld	fa4,0(a1)
    800048a0:	00850713          	addi	a4,a0,8
    800048a4:	0c858793          	addi	a5,a1,200
    800048a8:	7ae6f7c3          	fmadd.d	fa5,fa3,fa4,fa5
    800048ac:	2514                	fld	fa3,8(a0)
    800048ae:	25f8                	fld	fa4,200(a1)
    800048b0:	64058593          	addi	a1,a1,1600
    800048b4:	04050513          	addi	a0,a0,64
    800048b8:	7ae6f7c3          	fmadd.d	fa5,fa3,fa4,fa5
    800048bc:	fd053687          	fld	fa3,-48(a0)
    800048c0:	b505b707          	fld	fa4,-1200(a1)
    800048c4:	7ae6f7c3          	fmadd.d	fa5,fa3,fa4,fa5
    800048c8:	2b14                	fld	fa3,16(a4)
    800048ca:	1907b707          	fld	fa4,400(a5)
    800048ce:	7ae6f7c3          	fmadd.d	fa5,fa3,fa4,fa5
    800048d2:	2f14                	fld	fa3,24(a4)
    800048d4:	2587b707          	fld	fa4,600(a5)
    800048d8:	7ae6f7c3          	fmadd.d	fa5,fa3,fa4,fa5
    800048dc:	3314                	fld	fa3,32(a4)
    800048de:	3207b707          	fld	fa4,800(a5)
    800048e2:	7ae6f7c3          	fmadd.d	fa5,fa3,fa4,fa5
    800048e6:	3714                	fld	fa3,40(a4)
    800048e8:	3e87b707          	fld	fa4,1000(a5)
    800048ec:	7ae6f7c3          	fmadd.d	fa5,fa3,fa4,fa5
    800048f0:	3b14                	fld	fa3,48(a4)
    800048f2:	4b07b707          	fld	fa4,1200(a5)
    800048f6:	7ae6f7c3          	fmadd.d	fa5,fa3,fa4,fa5
    800048fa:	fab811e3          	bne	a6,a1,8000489c <thread_entry+0x2e8>
    800048fe:	12a7f7d3          	fmul.d	fa5,fa5,fa0
    80004902:	00033607          	fld	fa2,0(t1)
    80004906:	12b7f6d3          	fmul.d	fa3,fa5,fa1
    8000490a:	0af67753          	fsub.d	fa4,fa2,fa5
    8000490e:	22d6a6d3          	fabs.d	fa3,fa3
    80004912:	22e72753          	fabs.d	fa4,fa4
    80004916:	a2e697d3          	flt.d	a5,fa3,fa4
    8000491a:	e39d                	bnez	a5,80004940 <thread_entry+0x38c>
    8000491c:	0685                	addi	a3,a3,1
    8000491e:	0321                	addi	t1,t1,8
    80004920:	08a1                	addi	a7,a7,8
    80004922:	f7d697e3          	bne	a3,t4,80004890 <thread_entry+0x2dc>
    80004926:	0605                	addi	a2,a2,1
    80004928:	0c048493          	addi	s1,s1,192
    8000492c:	0c890913          	addi	s2,s2,200
    80004930:	f5e61de3          	bne	a2,t5,8000488a <thread_entry+0x2d6>
    80004934:	855a                	mv	a0,s6
    80004936:	c37ff0ef          	jal	ra,8000456c <barrier>
    8000493a:	4501                	li	a0,0
    8000493c:	40c000ef          	jal	ra,80004d48 <exit>
    80004940:	e20787d3          	fmv.x.d	a5,fa5
    80004944:	e2060753          	fmv.x.d	a4,fa2
    80004948:	85d6                	mv	a1,s5
    8000494a:	00000517          	auipc	a0,0x0
    8000494e:	7ce50513          	addi	a0,a0,1998 # 80005118 <main+0xac>
    80004952:	4ae000ef          	jal	ra,80004e00 <printf>
    80004956:	4505                	li	a0,1
    80004958:	3f0000ef          	jal	ra,80004d48 <exit>

000000008000495c <vprintfmt>:
    8000495c:	710d                	addi	sp,sp,-352
    8000495e:	eaa2                	sd	s0,336(sp)
    80004960:	e6a6                	sd	s1,328(sp)
    80004962:	e2ca                	sd	s2,320(sp)
    80004964:	fa52                	sd	s4,304(sp)
    80004966:	f656                	sd	s5,296(sp)
    80004968:	f25a                	sd	s6,288(sp)
    8000496a:	ee86                	sd	ra,344(sp)
    8000496c:	fe4e                	sd	s3,312(sp)
    8000496e:	ee5e                	sd	s7,280(sp)
    80004970:	ea62                	sd	s8,272(sp)
    80004972:	e666                	sd	s9,264(sp)
    80004974:	892a                	mv	s2,a0
    80004976:	84ae                	mv	s1,a1
    80004978:	8432                	mv	s0,a2
    8000497a:	8b36                	mv	s6,a3
    8000497c:	02500a13          	li	s4,37
    80004980:	8f818a93          	addi	s5,gp,-1800 # 80005180 <main+0x114>
    80004984:	a029                	j	8000498e <vprintfmt+0x32>
    80004986:	c131                	beqz	a0,800049ca <vprintfmt+0x6e>
    80004988:	85a6                	mv	a1,s1
    8000498a:	0405                	addi	s0,s0,1
    8000498c:	9902                	jalr	s2
    8000498e:	00044503          	lbu	a0,0(s0)
    80004992:	ff451ae3          	bne	a0,s4,80004986 <vprintfmt+0x2a>
    80004996:	00144683          	lbu	a3,1(s0)
    8000499a:	00140c93          	addi	s9,s0,1
    8000499e:	8766                	mv	a4,s9
    800049a0:	02000b93          	li	s7,32
    800049a4:	59fd                	li	s3,-1
    800049a6:	5c7d                	li	s8,-1
    800049a8:	4581                	li	a1,0
    800049aa:	05500613          	li	a2,85
    800049ae:	4525                	li	a0,9
    800049b0:	fdd6879b          	addiw	a5,a3,-35
    800049b4:	0ff7f793          	andi	a5,a5,255
    800049b8:	00170413          	addi	s0,a4,1
    800049bc:	1ef66963          	bltu	a2,a5,80004bae <vprintfmt+0x252>
    800049c0:	078a                	slli	a5,a5,0x2
    800049c2:	97d6                	add	a5,a5,s5
    800049c4:	439c                	lw	a5,0(a5)
    800049c6:	97d6                	add	a5,a5,s5
    800049c8:	8782                	jr	a5
    800049ca:	60f6                	ld	ra,344(sp)
    800049cc:	6456                	ld	s0,336(sp)
    800049ce:	64b6                	ld	s1,328(sp)
    800049d0:	6916                	ld	s2,320(sp)
    800049d2:	79f2                	ld	s3,312(sp)
    800049d4:	7a52                	ld	s4,304(sp)
    800049d6:	7ab2                	ld	s5,296(sp)
    800049d8:	7b12                	ld	s6,288(sp)
    800049da:	6bf2                	ld	s7,280(sp)
    800049dc:	6c52                	ld	s8,272(sp)
    800049de:	6cb2                	ld	s9,264(sp)
    800049e0:	6135                	addi	sp,sp,352
    800049e2:	8082                	ret
    800049e4:	4721                	li	a4,8
    800049e6:	4785                	li	a5,1
    800049e8:	008b0693          	addi	a3,s6,8
    800049ec:	0eb7d463          	ble	a1,a5,80004ad4 <vprintfmt+0x178>
    800049f0:	000b3783          	ld	a5,0(s6)
    800049f4:	8b36                	mv	s6,a3
    800049f6:	02e7f6b3          	remu	a3,a5,a4
    800049fa:	2b81                	sext.w	s7,s7
    800049fc:	0050                	addi	a2,sp,4
    800049fe:	4985                	li	s3,1
    80004a00:	c036                	sw	a3,0(sp)
    80004a02:	00e7f463          	bleu	a4,a5,80004a0a <vprintfmt+0xae>
    80004a06:	aa55                	j	80004bba <vprintfmt+0x25e>
    80004a08:	89e6                	mv	s3,s9
    80004a0a:	02e7d7b3          	divu	a5,a5,a4
    80004a0e:	0611                	addi	a2,a2,4
    80004a10:	00198c9b          	addiw	s9,s3,1
    80004a14:	02e7f6b3          	remu	a3,a5,a4
    80004a18:	fed62e23          	sw	a3,-4(a2)
    80004a1c:	fee7f6e3          	bleu	a4,a5,80004a08 <vprintfmt+0xac>
    80004a20:	018cd963          	ble	s8,s9,80004a32 <vprintfmt+0xd6>
    80004a24:	2c01                	sext.w	s8,s8
    80004a26:	3c7d                	addiw	s8,s8,-1
    80004a28:	85a6                	mv	a1,s1
    80004a2a:	855e                	mv	a0,s7
    80004a2c:	9902                	jalr	s2
    80004a2e:	ff8ccce3          	blt	s9,s8,80004a26 <vprintfmt+0xca>
    80004a32:	00299793          	slli	a5,s3,0x2
    80004a36:	0218                	addi	a4,sp,256
    80004a38:	97ba                	add	a5,a5,a4
    80004a3a:	f007a683          	lw	a3,-256(a5)
    80004a3e:	fff98b9b          	addiw	s7,s3,-1
    80004a42:	0b8a                	slli	s7,s7,0x2
    80004a44:	9b8a                	add	s7,s7,sp
    80004a46:	4c25                	li	s8,9
    80004a48:	a029                	j	80004a52 <vprintfmt+0xf6>
    80004a4a:	000ba683          	lw	a3,0(s7)
    80004a4e:	19fd                	addi	s3,s3,-1
    80004a50:	1bf1                	addi	s7,s7,-4
    80004a52:	03000513          	li	a0,48
    80004a56:	00dc7463          	bleu	a3,s8,80004a5e <vprintfmt+0x102>
    80004a5a:	05700513          	li	a0,87
    80004a5e:	85a6                	mv	a1,s1
    80004a60:	9d35                	addw	a0,a0,a3
    80004a62:	9902                	jalr	s2
    80004a64:	0009879b          	sext.w	a5,s3
    80004a68:	fef041e3          	bgtz	a5,80004a4a <vprintfmt+0xee>
    80004a6c:	b70d                	j	8000498e <vprintfmt+0x32>
    80004a6e:	03000513          	li	a0,48
    80004a72:	85a6                	mv	a1,s1
    80004a74:	9902                	jalr	s2
    80004a76:	85a6                	mv	a1,s1
    80004a78:	07800513          	li	a0,120
    80004a7c:	9902                	jalr	s2
    80004a7e:	008b0693          	addi	a3,s6,8
    80004a82:	4741                	li	a4,16
    80004a84:	b7b5                	j	800049f0 <vprintfmt+0x94>
    80004a86:	000b3c83          	ld	s9,0(s6)
    80004a8a:	0b21                	addi	s6,s6,8
    80004a8c:	180c8863          	beqz	s9,80004c1c <vprintfmt+0x2c0>
    80004a90:	15805163          	blez	s8,80004bd2 <vprintfmt+0x276>
    80004a94:	02d00793          	li	a5,45
    80004a98:	16fb8d63          	beq	s7,a5,80004c12 <vprintfmt+0x2b6>
    80004a9c:	000c059b          	sext.w	a1,s8
    80004aa0:	18098963          	beqz	s3,80004c32 <vprintfmt+0x2d6>
    80004aa4:	000cc783          	lbu	a5,0(s9)
    80004aa8:	18078563          	beqz	a5,80004c32 <vprintfmt+0x2d6>
    80004aac:	001c8793          	addi	a5,s9,1
    80004ab0:	013c8633          	add	a2,s9,s3
    80004ab4:	1af60363          	beq	a2,a5,80004c5a <vprintfmt+0x2fe>
    80004ab8:	00178713          	addi	a4,a5,1
    80004abc:	fff74683          	lbu	a3,-1(a4)
    80004ac0:	10068363          	beqz	a3,80004bc6 <vprintfmt+0x26a>
    80004ac4:	87ba                	mv	a5,a4
    80004ac6:	b7fd                	j	80004ab4 <vprintfmt+0x158>
    80004ac8:	4785                	li	a5,1
    80004aca:	4729                	li	a4,10
    80004acc:	008b0693          	addi	a3,s6,8
    80004ad0:	f2b7c0e3          	blt	a5,a1,800049f0 <vprintfmt+0x94>
    80004ad4:	fd91                	bnez	a1,800049f0 <vprintfmt+0x94>
    80004ad6:	000b6783          	lwu	a5,0(s6)
    80004ada:	8b36                	mv	s6,a3
    80004adc:	bf29                	j	800049f6 <vprintfmt+0x9a>
    80004ade:	00174683          	lbu	a3,1(a4)
    80004ae2:	8722                	mv	a4,s0
    80004ae4:	b5f1                	j	800049b0 <vprintfmt+0x54>
    80004ae6:	85a6                	mv	a1,s1
    80004ae8:	02500513          	li	a0,37
    80004aec:	9902                	jalr	s2
    80004aee:	b545                	j	8000498e <vprintfmt+0x32>
    80004af0:	4741                	li	a4,16
    80004af2:	bdd5                	j	800049e6 <vprintfmt+0x8a>
    80004af4:	000b2983          	lw	s3,0(s6)
    80004af8:	00174683          	lbu	a3,1(a4)
    80004afc:	0b21                	addi	s6,s6,8
    80004afe:	8722                	mv	a4,s0
    80004b00:	ea0c58e3          	bgez	s8,800049b0 <vprintfmt+0x54>
    80004b04:	8c4e                	mv	s8,s3
    80004b06:	59fd                	li	s3,-1
    80004b08:	b565                	j	800049b0 <vprintfmt+0x54>
    80004b0a:	00174683          	lbu	a3,1(a4)
    80004b0e:	02d00b93          	li	s7,45
    80004b12:	8722                	mv	a4,s0
    80004b14:	bd71                	j	800049b0 <vprintfmt+0x54>
    80004b16:	fffc4793          	not	a5,s8
    80004b1a:	97fd                	srai	a5,a5,0x3f
    80004b1c:	00fc7c33          	and	s8,s8,a5
    80004b20:	00174683          	lbu	a3,1(a4)
    80004b24:	2c01                	sext.w	s8,s8
    80004b26:	8722                	mv	a4,s0
    80004b28:	b561                	j	800049b0 <vprintfmt+0x54>
    80004b2a:	00174683          	lbu	a3,1(a4)
    80004b2e:	03000b93          	li	s7,48
    80004b32:	8722                	mv	a4,s0
    80004b34:	bdb5                	j	800049b0 <vprintfmt+0x54>
    80004b36:	fd06899b          	addiw	s3,a3,-48
    80004b3a:	00174683          	lbu	a3,1(a4)
    80004b3e:	8722                	mv	a4,s0
    80004b40:	fd06879b          	addiw	a5,a3,-48
    80004b44:	0006881b          	sext.w	a6,a3
    80004b48:	faf56ce3          	bltu	a0,a5,80004b00 <vprintfmt+0x1a4>
    80004b4c:	0705                	addi	a4,a4,1
    80004b4e:	0029979b          	slliw	a5,s3,0x2
    80004b52:	00074683          	lbu	a3,0(a4)
    80004b56:	013789bb          	addw	s3,a5,s3
    80004b5a:	0019999b          	slliw	s3,s3,0x1
    80004b5e:	010989bb          	addw	s3,s3,a6
    80004b62:	fd06879b          	addiw	a5,a3,-48
    80004b66:	fd09899b          	addiw	s3,s3,-48
    80004b6a:	0006881b          	sext.w	a6,a3
    80004b6e:	fcf57fe3          	bleu	a5,a0,80004b4c <vprintfmt+0x1f0>
    80004b72:	b779                	j	80004b00 <vprintfmt+0x1a4>
    80004b74:	000b2503          	lw	a0,0(s6)
    80004b78:	85a6                	mv	a1,s1
    80004b7a:	0b21                	addi	s6,s6,8
    80004b7c:	9902                	jalr	s2
    80004b7e:	bd01                	j	8000498e <vprintfmt+0x32>
    80004b80:	4785                	li	a5,1
    80004b82:	008b0c93          	addi	s9,s6,8
    80004b86:	08b7d263          	ble	a1,a5,80004c0a <vprintfmt+0x2ae>
    80004b8a:	000b3983          	ld	s3,0(s6)
    80004b8e:	0a09da63          	bgez	s3,80004c42 <vprintfmt+0x2e6>
    80004b92:	85a6                	mv	a1,s1
    80004b94:	02d00513          	li	a0,45
    80004b98:	9902                	jalr	s2
    80004b9a:	8b66                	mv	s6,s9
    80004b9c:	413007b3          	neg	a5,s3
    80004ba0:	4729                	li	a4,10
    80004ba2:	bd91                	j	800049f6 <vprintfmt+0x9a>
    80004ba4:	00174683          	lbu	a3,1(a4)
    80004ba8:	2585                	addiw	a1,a1,1
    80004baa:	8722                	mv	a4,s0
    80004bac:	b511                	j	800049b0 <vprintfmt+0x54>
    80004bae:	85a6                	mv	a1,s1
    80004bb0:	02500513          	li	a0,37
    80004bb4:	9902                	jalr	s2
    80004bb6:	8466                	mv	s0,s9
    80004bb8:	bbd9                	j	8000498e <vprintfmt+0x32>
    80004bba:	4785                	li	a5,1
    80004bbc:	4981                	li	s3,0
    80004bbe:	4c85                	li	s9,1
    80004bc0:	e787c2e3          	blt	a5,s8,80004a24 <vprintfmt+0xc8>
    80004bc4:	bdad                	j	80004a3e <vprintfmt+0xe2>
    80004bc6:	41978c33          	sub	s8,a5,s9
    80004bca:	41858c3b          	subw	s8,a1,s8
    80004bce:	07804263          	bgtz	s8,80004c32 <vprintfmt+0x2d6>
    80004bd2:	000cc503          	lbu	a0,0(s9)
    80004bd6:	da050ce3          	beqz	a0,8000498e <vprintfmt+0x32>
    80004bda:	5bfd                	li	s7,-1
    80004bdc:	0209d363          	bgez	s3,80004c02 <vprintfmt+0x2a6>
    80004be0:	85a6                	mv	a1,s1
    80004be2:	0c85                	addi	s9,s9,1
    80004be4:	9902                	jalr	s2
    80004be6:	000cc503          	lbu	a0,0(s9)
    80004bea:	3c7d                	addiw	s8,s8,-1
    80004bec:	f965                	bnez	a0,80004bdc <vprintfmt+0x280>
    80004bee:	db8050e3          	blez	s8,8000498e <vprintfmt+0x32>
    80004bf2:	3c7d                	addiw	s8,s8,-1
    80004bf4:	85a6                	mv	a1,s1
    80004bf6:	02000513          	li	a0,32
    80004bfa:	9902                	jalr	s2
    80004bfc:	fe0c1be3          	bnez	s8,80004bf2 <vprintfmt+0x296>
    80004c00:	b379                	j	8000498e <vprintfmt+0x32>
    80004c02:	39fd                	addiw	s3,s3,-1
    80004c04:	fd799ee3          	bne	s3,s7,80004be0 <vprintfmt+0x284>
    80004c08:	b7dd                	j	80004bee <vprintfmt+0x292>
    80004c0a:	f1c1                	bnez	a1,80004b8a <vprintfmt+0x22e>
    80004c0c:	000b2983          	lw	s3,0(s6)
    80004c10:	bfbd                	j	80004b8e <vprintfmt+0x232>
    80004c12:	000cc503          	lbu	a0,0(s9)
    80004c16:	dd71                	beqz	a0,80004bf2 <vprintfmt+0x296>
    80004c18:	5bfd                	li	s7,-1
    80004c1a:	b7c9                	j	80004bdc <vprintfmt+0x280>
    80004c1c:	03805763          	blez	s8,80004c4a <vprintfmt+0x2ee>
    80004c20:	02d00793          	li	a5,45
    80004c24:	02fb8363          	beq	s7,a5,80004c4a <vprintfmt+0x2ee>
    80004c28:	00000c97          	auipc	s9,0x0
    80004c2c:	510c8c93          	addi	s9,s9,1296 # 80005138 <main+0xcc>
    80004c30:	b5b5                	j	80004a9c <vprintfmt+0x140>
    80004c32:	2b81                	sext.w	s7,s7
    80004c34:	3c7d                	addiw	s8,s8,-1
    80004c36:	85a6                	mv	a1,s1
    80004c38:	855e                	mv	a0,s7
    80004c3a:	9902                	jalr	s2
    80004c3c:	fe0c1ce3          	bnez	s8,80004c34 <vprintfmt+0x2d8>
    80004c40:	bf49                	j	80004bd2 <vprintfmt+0x276>
    80004c42:	87ce                	mv	a5,s3
    80004c44:	8b66                	mv	s6,s9
    80004c46:	4729                	li	a4,10
    80004c48:	b37d                	j	800049f6 <vprintfmt+0x9a>
    80004c4a:	00000c97          	auipc	s9,0x0
    80004c4e:	4eec8c93          	addi	s9,s9,1262 # 80005138 <main+0xcc>
    80004c52:	02800513          	li	a0,40
    80004c56:	5bfd                	li	s7,-1
    80004c58:	b751                	j	80004bdc <vprintfmt+0x280>
    80004c5a:	41960c33          	sub	s8,a2,s9
    80004c5e:	41858c3b          	subw	s8,a1,s8
    80004c62:	fd8048e3          	bgtz	s8,80004c32 <vprintfmt+0x2d6>
    80004c66:	b7b5                	j	80004bd2 <vprintfmt+0x276>

0000000080004c68 <sprintf_putch.2950>:
    80004c68:	619c                	ld	a5,0(a1)
    80004c6a:	00a78023          	sb	a0,0(a5)
    80004c6e:	619c                	ld	a5,0(a1)
    80004c70:	0785                	addi	a5,a5,1
    80004c72:	e19c                	sd	a5,0(a1)
    80004c74:	8082                	ret

0000000080004c76 <putchar>:
    80004c76:	08022803          	lw	a6,128(tp) # 80 <buflen.2836>
    80004c7a:	04020793          	addi	a5,tp,64 # 40 <buf.2835>
    80004c7e:	97c2                	add	a5,a5,a6
    80004c80:	7119                	addi	sp,sp,-128
    80004c82:	0018069b          	addiw	a3,a6,1
    80004c86:	08d22023          	sw	a3,128(tp) # 80 <buflen.2836>
    80004c8a:	00a78023          	sb	a0,0(a5)
    80004c8e:	03f10713          	addi	a4,sp,63
    80004c92:	47a9                	li	a5,10
    80004c94:	fc077713          	andi	a4,a4,-64
    80004c98:	00f50963          	beq	a0,a5,80004caa <putchar+0x34>
    80004c9c:	04000793          	li	a5,64
    80004ca0:	00f68563          	beq	a3,a5,80004caa <putchar+0x34>
    80004ca4:	4501                	li	a0,0
    80004ca6:	6109                	addi	sp,sp,128
    80004ca8:	8082                	ret
    80004caa:	04000793          	li	a5,64
    80004cae:	e31c                	sd	a5,0(a4)
    80004cb0:	4785                	li	a5,1
    80004cb2:	e71c                	sd	a5,8(a4)
    80004cb4:	04020613          	addi	a2,tp,64 # 40 <buf.2835>
    80004cb8:	eb10                	sd	a2,16(a4)
    80004cba:	ef14                	sd	a3,24(a4)
    80004cbc:	0ff0000f          	fence
    80004cc0:	ffffc797          	auipc	a5,0xffffc
    80004cc4:	34e7b023          	sd	a4,832(a5) # 80001000 <tohost>
    80004cc8:	ffffc697          	auipc	a3,0xffffc
    80004ccc:	37868693          	addi	a3,a3,888 # 80001040 <fromhost>
    80004cd0:	629c                	ld	a5,0(a3)
    80004cd2:	dffd                	beqz	a5,80004cd0 <putchar+0x5a>
    80004cd4:	ffffc797          	auipc	a5,0xffffc
    80004cd8:	3607b623          	sd	zero,876(a5) # 80001040 <fromhost>
    80004cdc:	0ff0000f          	fence
    80004ce0:	08022023          	sw	zero,128(tp) # 80 <buflen.2836>
    80004ce4:	631c                	ld	a5,0(a4)
    80004ce6:	4501                	li	a0,0
    80004ce8:	6109                	addi	sp,sp,128
    80004cea:	8082                	ret

0000000080004cec <setStats>:
    80004cec:	b00027f3          	csrr	a5,mcycle
    80004cf0:	a5818713          	addi	a4,gp,-1448 # 800052e0 <counters>
    80004cf4:	e909                	bnez	a0,80004d06 <setStats+0x1a>
    80004cf6:	6314                	ld	a3,0(a4)
    80004cf8:	00000617          	auipc	a2,0x0
    80004cfc:	44860613          	addi	a2,a2,1096 # 80005140 <main+0xd4>
    80004d00:	a6c1b423          	sd	a2,-1432(gp) # 800052f0 <counter_names>
    80004d04:	8f95                	sub	a5,a5,a3
    80004d06:	a4f1bc23          	sd	a5,-1448(gp) # 800052e0 <counters>
    80004d0a:	b02027f3          	csrr	a5,minstret
    80004d0e:	e909                	bnez	a0,80004d20 <setStats+0x34>
    80004d10:	6718                	ld	a4,8(a4)
    80004d12:	00000697          	auipc	a3,0x0
    80004d16:	43668693          	addi	a3,a3,1078 # 80005148 <main+0xdc>
    80004d1a:	a6d1b823          	sd	a3,-1424(gp) # 800052f8 <counter_names+0x8>
    80004d1e:	8f99                	sub	a5,a5,a4
    80004d20:	a6f1b023          	sd	a5,-1440(gp) # 800052e8 <counters+0x8>
    80004d24:	8082                	ret

0000000080004d26 <tohost_exit>:
    80004d26:	00151793          	slli	a5,a0,0x1
    80004d2a:	0017e793          	ori	a5,a5,1
    80004d2e:	ffffc717          	auipc	a4,0xffffc
    80004d32:	2cf73923          	sd	a5,722(a4) # 80001000 <tohost>
    80004d36:	a001                	j	80004d36 <tohost_exit+0x10>

0000000080004d38 <handle_trap>:
    80004d38:	6785                	lui	a5,0x1
    80004d3a:	a7378793          	addi	a5,a5,-1421 # a73 <buflen.2836+0x9f3>
    80004d3e:	ffffc717          	auipc	a4,0xffffc
    80004d42:	2cf73123          	sd	a5,706(a4) # 80001000 <tohost>
    80004d46:	a001                	j	80004d46 <handle_trap+0xe>

0000000080004d48 <exit>:
    80004d48:	1141                	addi	sp,sp,-16
    80004d4a:	e406                	sd	ra,8(sp)
    80004d4c:	fdbff0ef          	jal	ra,80004d26 <tohost_exit>

0000000080004d50 <abort>:
    80004d50:	10d00793          	li	a5,269
    80004d54:	ffffc717          	auipc	a4,0xffffc
    80004d58:	2af73623          	sd	a5,684(a4) # 80001000 <tohost>
    80004d5c:	a001                	j	80004d5c <abort+0xc>

0000000080004d5e <printstr>:
    80004d5e:	00054783          	lbu	a5,0(a0)
    80004d62:	7119                	addi	sp,sp,-128
    80004d64:	03f10713          	addi	a4,sp,63
    80004d68:	86aa                	mv	a3,a0
    80004d6a:	fc077713          	andi	a4,a4,-64
    80004d6e:	c3b9                	beqz	a5,80004db4 <printstr+0x56>
    80004d70:	862a                	mv	a2,a0
    80004d72:	0505                	addi	a0,a0,1
    80004d74:	00054783          	lbu	a5,0(a0)
    80004d78:	ffed                	bnez	a5,80004d72 <printstr+0x14>
    80004d7a:	8d11                	sub	a0,a0,a2
    80004d7c:	04000793          	li	a5,64
    80004d80:	e31c                	sd	a5,0(a4)
    80004d82:	4785                	li	a5,1
    80004d84:	e71c                	sd	a5,8(a4)
    80004d86:	eb14                	sd	a3,16(a4)
    80004d88:	ef08                	sd	a0,24(a4)
    80004d8a:	0ff0000f          	fence
    80004d8e:	ffffc797          	auipc	a5,0xffffc
    80004d92:	26e7b923          	sd	a4,626(a5) # 80001000 <tohost>
    80004d96:	ffffc697          	auipc	a3,0xffffc
    80004d9a:	2aa68693          	addi	a3,a3,682 # 80001040 <fromhost>
    80004d9e:	629c                	ld	a5,0(a3)
    80004da0:	dffd                	beqz	a5,80004d9e <printstr+0x40>
    80004da2:	ffffc797          	auipc	a5,0xffffc
    80004da6:	2807bf23          	sd	zero,670(a5) # 80001040 <fromhost>
    80004daa:	0ff0000f          	fence
    80004dae:	631c                	ld	a5,0(a4)
    80004db0:	6109                	addi	sp,sp,128
    80004db2:	8082                	ret
    80004db4:	4501                	li	a0,0
    80004db6:	b7d9                	j	80004d7c <printstr+0x1e>
    80004db8:	c111                	beqz	a0,80004dbc <printstr+0x5e>
    80004dba:	a001                	j	80004dba <printstr+0x5c>
    80004dbc:	8082                	ret

0000000080004dbe <printhex>:
    80004dbe:	7179                	addi	sp,sp,-48
    80004dc0:	f406                	sd	ra,40(sp)
    80004dc2:	01710713          	addi	a4,sp,23
    80004dc6:	00710813          	addi	a6,sp,7
    80004dca:	45a5                	li	a1,9
    80004dcc:	00f57793          	andi	a5,a0,15
    80004dd0:	03000613          	li	a2,48
    80004dd4:	0ff7f693          	andi	a3,a5,255
    80004dd8:	00f5f463          	bleu	a5,a1,80004de0 <printhex+0x22>
    80004ddc:	05700613          	li	a2,87
    80004de0:	00c687bb          	addw	a5,a3,a2
    80004de4:	00f70023          	sb	a5,0(a4)
    80004de8:	177d                	addi	a4,a4,-1
    80004dea:	8111                	srli	a0,a0,0x4
    80004dec:	fee810e3          	bne	a6,a4,80004dcc <printhex+0xe>
    80004df0:	0028                	addi	a0,sp,8
    80004df2:	00010c23          	sb	zero,24(sp)
    80004df6:	f69ff0ef          	jal	ra,80004d5e <printstr>
    80004dfa:	70a2                	ld	ra,40(sp)
    80004dfc:	6145                	addi	sp,sp,48
    80004dfe:	8082                	ret

0000000080004e00 <printf>:
    80004e00:	711d                	addi	sp,sp,-96
    80004e02:	02810313          	addi	t1,sp,40
    80004e06:	f42e                	sd	a1,40(sp)
    80004e08:	f832                	sd	a2,48(sp)
    80004e0a:	fc36                	sd	a3,56(sp)
    80004e0c:	862a                	mv	a2,a0
    80004e0e:	869a                	mv	a3,t1
    80004e10:	00000517          	auipc	a0,0x0
    80004e14:	e6650513          	addi	a0,a0,-410 # 80004c76 <putchar>
    80004e18:	4581                	li	a1,0
    80004e1a:	ec06                	sd	ra,24(sp)
    80004e1c:	e0ba                	sd	a4,64(sp)
    80004e1e:	e4be                	sd	a5,72(sp)
    80004e20:	e8c2                	sd	a6,80(sp)
    80004e22:	ecc6                	sd	a7,88(sp)
    80004e24:	e41a                	sd	t1,8(sp)
    80004e26:	b37ff0ef          	jal	ra,8000495c <vprintfmt>
    80004e2a:	60e2                	ld	ra,24(sp)
    80004e2c:	4501                	li	a0,0
    80004e2e:	6125                	addi	sp,sp,96
    80004e30:	8082                	ret

0000000080004e32 <sprintf>:
    80004e32:	711d                	addi	sp,sp,-96
    80004e34:	03010313          	addi	t1,sp,48
    80004e38:	f022                	sd	s0,32(sp)
    80004e3a:	e42a                	sd	a0,8(sp)
    80004e3c:	f832                	sd	a2,48(sp)
    80004e3e:	fc36                	sd	a3,56(sp)
    80004e40:	842a                	mv	s0,a0
    80004e42:	862e                	mv	a2,a1
    80004e44:	00000517          	auipc	a0,0x0
    80004e48:	e2450513          	addi	a0,a0,-476 # 80004c68 <sprintf_putch.2950>
    80004e4c:	002c                	addi	a1,sp,8
    80004e4e:	869a                	mv	a3,t1
    80004e50:	f406                	sd	ra,40(sp)
    80004e52:	e4be                	sd	a5,72(sp)
    80004e54:	e0ba                	sd	a4,64(sp)
    80004e56:	e8c2                	sd	a6,80(sp)
    80004e58:	ecc6                	sd	a7,88(sp)
    80004e5a:	ec1a                	sd	t1,24(sp)
    80004e5c:	b01ff0ef          	jal	ra,8000495c <vprintfmt>
    80004e60:	67a2                	ld	a5,8(sp)
    80004e62:	00078023          	sb	zero,0(a5)
    80004e66:	6522                	ld	a0,8(sp)
    80004e68:	70a2                	ld	ra,40(sp)
    80004e6a:	9d01                	subw	a0,a0,s0
    80004e6c:	7402                	ld	s0,32(sp)
    80004e6e:	6125                	addi	sp,sp,96
    80004e70:	8082                	ret

0000000080004e72 <memcpy>:
    80004e72:	00c5e7b3          	or	a5,a1,a2
    80004e76:	8fc9                	or	a5,a5,a0
    80004e78:	8b9d                	andi	a5,a5,7
    80004e7a:	00c506b3          	add	a3,a0,a2
    80004e7e:	cf91                	beqz	a5,80004e9a <memcpy+0x28>
    80004e80:	962e                	add	a2,a2,a1
    80004e82:	87aa                	mv	a5,a0
    80004e84:	02d57763          	bleu	a3,a0,80004eb2 <memcpy+0x40>
    80004e88:	0585                	addi	a1,a1,1
    80004e8a:	fff5c703          	lbu	a4,-1(a1)
    80004e8e:	0785                	addi	a5,a5,1
    80004e90:	fee78fa3          	sb	a4,-1(a5)
    80004e94:	feb61ae3          	bne	a2,a1,80004e88 <memcpy+0x16>
    80004e98:	8082                	ret
    80004e9a:	fed57fe3          	bleu	a3,a0,80004e98 <memcpy+0x26>
    80004e9e:	87aa                	mv	a5,a0
    80004ea0:	05a1                	addi	a1,a1,8
    80004ea2:	ff85b703          	ld	a4,-8(a1)
    80004ea6:	07a1                	addi	a5,a5,8
    80004ea8:	fee7bc23          	sd	a4,-8(a5)
    80004eac:	fed7eae3          	bltu	a5,a3,80004ea0 <memcpy+0x2e>
    80004eb0:	8082                	ret
    80004eb2:	8082                	ret

0000000080004eb4 <memset>:
    80004eb4:	00c567b3          	or	a5,a0,a2
    80004eb8:	8b9d                	andi	a5,a5,7
    80004eba:	962a                	add	a2,a2,a0
    80004ebc:	0ff5f593          	andi	a1,a1,255
    80004ec0:	cb91                	beqz	a5,80004ed4 <memset+0x20>
    80004ec2:	87aa                	mv	a5,a0
    80004ec4:	02c57a63          	bleu	a2,a0,80004ef8 <memset+0x44>
    80004ec8:	0785                	addi	a5,a5,1
    80004eca:	feb78fa3          	sb	a1,-1(a5)
    80004ece:	fef61de3          	bne	a2,a5,80004ec8 <memset+0x14>
    80004ed2:	8082                	ret
    80004ed4:	00859793          	slli	a5,a1,0x8
    80004ed8:	8fcd                	or	a5,a5,a1
    80004eda:	01079593          	slli	a1,a5,0x10
    80004ede:	8fcd                	or	a5,a5,a1
    80004ee0:	02079713          	slli	a4,a5,0x20
    80004ee4:	8fd9                	or	a5,a5,a4
    80004ee6:	fec576e3          	bleu	a2,a0,80004ed2 <memset+0x1e>
    80004eea:	872a                	mv	a4,a0
    80004eec:	0721                	addi	a4,a4,8
    80004eee:	fef73c23          	sd	a5,-8(a4)
    80004ef2:	fec76de3          	bltu	a4,a2,80004eec <memset+0x38>
    80004ef6:	8082                	ret
    80004ef8:	8082                	ret

0000000080004efa <_init>:
    80004efa:	7131                	addi	sp,sp,-192
    80004efc:	a7818793          	addi	a5,gp,-1416 # 80005300 <_end>
    80004f00:	f14a                	sd	s2,160(sp)
    80004f02:	a7818913          	addi	s2,gp,-1416 # 80005300 <_end>
    80004f06:	f526                	sd	s1,168(sp)
    80004f08:	40f904b3          	sub	s1,s2,a5
    80004f0c:	8626                	mv	a2,s1
    80004f0e:	ed4e                	sd	s3,152(sp)
    80004f10:	e952                	sd	s4,144(sp)
    80004f12:	89aa                	mv	s3,a0
    80004f14:	8a2e                	mv	s4,a1
    80004f16:	8512                	mv	a0,tp
    80004f18:	85be                	mv	a1,a5
    80004f1a:	fd06                	sd	ra,184(sp)
    80004f1c:	f922                	sd	s0,176(sp)
    80004f1e:	e556                	sd	s5,136(sp)
    80004f20:	8a92                	mv	s5,tp
    80004f22:	f51ff0ef          	jal	ra,80004e72 <memcpy>
    80004f26:	afc18613          	addi	a2,gp,-1284 # 80005384 <_tbss_end>
    80004f2a:	41260633          	sub	a2,a2,s2
    80004f2e:	4581                	li	a1,0
    80004f30:	009a8533          	add	a0,s5,s1
    80004f34:	f81ff0ef          	jal	ra,80004eb4 <memset>
    80004f38:	854e                	mv	a0,s3
    80004f3a:	85d2                	mv	a1,s4
    80004f3c:	e78ff0ef          	jal	ra,800045b4 <thread_entry>
    80004f40:	4581                	li	a1,0
    80004f42:	4501                	li	a0,0
    80004f44:	128000ef          	jal	ra,8000506c <main>
    80004f48:	a5818493          	addi	s1,gp,-1448 # 800052e0 <counters>
    80004f4c:	6094                	ld	a3,0(s1)
    80004f4e:	03f10413          	addi	s0,sp,63
    80004f52:	fc047413          	andi	s0,s0,-64
    80004f56:	89aa                	mv	s3,a0
    80004f58:	e695                	bnez	a3,80004f84 <_init+0x8a>
    80004f5a:	6494                	ld	a3,8(s1)
    80004f5c:	e681                	bnez	a3,80004f64 <_init+0x6a>
    80004f5e:	854e                	mv	a0,s3
    80004f60:	dc7ff0ef          	jal	ra,80004d26 <tohost_exit>
    80004f64:	8922                	mv	s2,s0
    80004f66:	6c90                	ld	a2,24(s1)
    80004f68:	854a                	mv	a0,s2
    80004f6a:	00000597          	auipc	a1,0x0
    80004f6e:	20658593          	addi	a1,a1,518 # 80005170 <main+0x104>
    80004f72:	ec1ff0ef          	jal	ra,80004e32 <sprintf>
    80004f76:	992a                	add	s2,s2,a0
    80004f78:	ff2403e3          	beq	s0,s2,80004f5e <_init+0x64>
    80004f7c:	8522                	mv	a0,s0
    80004f7e:	de1ff0ef          	jal	ra,80004d5e <printstr>
    80004f82:	bff1                	j	80004f5e <_init+0x64>
    80004f84:	6890                	ld	a2,16(s1)
    80004f86:	00000597          	auipc	a1,0x0
    80004f8a:	1ea58593          	addi	a1,a1,490 # 80005170 <main+0x104>
    80004f8e:	8522                	mv	a0,s0
    80004f90:	ea3ff0ef          	jal	ra,80004e32 <sprintf>
    80004f94:	6494                	ld	a3,8(s1)
    80004f96:	00a40933          	add	s2,s0,a0
    80004f9a:	def9                	beqz	a3,80004f78 <_init+0x7e>
    80004f9c:	b7e9                	j	80004f66 <_init+0x6c>

0000000080004f9e <strlen>:
    80004f9e:	00054783          	lbu	a5,0(a0)
    80004fa2:	872a                	mv	a4,a0
    80004fa4:	c799                	beqz	a5,80004fb2 <strlen+0x14>
    80004fa6:	0505                	addi	a0,a0,1
    80004fa8:	00054783          	lbu	a5,0(a0)
    80004fac:	ffed                	bnez	a5,80004fa6 <strlen+0x8>
    80004fae:	8d19                	sub	a0,a0,a4
    80004fb0:	8082                	ret
    80004fb2:	4501                	li	a0,0
    80004fb4:	8082                	ret

0000000080004fb6 <strnlen>:
    80004fb6:	872a                	mv	a4,a0
    80004fb8:	cd91                	beqz	a1,80004fd4 <strnlen+0x1e>
    80004fba:	00054783          	lbu	a5,0(a0)
    80004fbe:	cb99                	beqz	a5,80004fd4 <strnlen+0x1e>
    80004fc0:	95aa                	add	a1,a1,a0
    80004fc2:	a021                	j	80004fca <strnlen+0x14>
    80004fc4:	00054783          	lbu	a5,0(a0)
    80004fc8:	c781                	beqz	a5,80004fd0 <strnlen+0x1a>
    80004fca:	0505                	addi	a0,a0,1
    80004fcc:	feb51ce3          	bne	a0,a1,80004fc4 <strnlen+0xe>
    80004fd0:	8d19                	sub	a0,a0,a4
    80004fd2:	8082                	ret
    80004fd4:	4501                	li	a0,0
    80004fd6:	8082                	ret

0000000080004fd8 <strcmp>:
    80004fd8:	0505                	addi	a0,a0,1
    80004fda:	fff54783          	lbu	a5,-1(a0)
    80004fde:	0585                	addi	a1,a1,1
    80004fe0:	fff5c703          	lbu	a4,-1(a1)
    80004fe4:	c799                	beqz	a5,80004ff2 <strcmp+0x1a>
    80004fe6:	fee789e3          	beq	a5,a4,80004fd8 <strcmp>
    80004fea:	0007851b          	sext.w	a0,a5
    80004fee:	9d19                	subw	a0,a0,a4
    80004ff0:	8082                	ret
    80004ff2:	4501                	li	a0,0
    80004ff4:	bfed                	j	80004fee <strcmp+0x16>

0000000080004ff6 <strcpy>:
    80004ff6:	87aa                	mv	a5,a0
    80004ff8:	0585                	addi	a1,a1,1
    80004ffa:	fff5c703          	lbu	a4,-1(a1)
    80004ffe:	0785                	addi	a5,a5,1
    80005000:	fee78fa3          	sb	a4,-1(a5)
    80005004:	fb75                	bnez	a4,80004ff8 <strcpy+0x2>
    80005006:	8082                	ret

0000000080005008 <atol>:
    80005008:	00054783          	lbu	a5,0(a0)
    8000500c:	02000713          	li	a4,32
    80005010:	00e79763          	bne	a5,a4,8000501e <atol+0x16>
    80005014:	0505                	addi	a0,a0,1
    80005016:	00054783          	lbu	a5,0(a0)
    8000501a:	fee78de3          	beq	a5,a4,80005014 <atol+0xc>
    8000501e:	fd57871b          	addiw	a4,a5,-43
    80005022:	0fd77713          	andi	a4,a4,253
    80005026:	c715                	beqz	a4,80005052 <atol+0x4a>
    80005028:	00054683          	lbu	a3,0(a0)
    8000502c:	87aa                	mv	a5,a0
    8000502e:	4601                	li	a2,0
    80005030:	ce85                	beqz	a3,80005068 <atol+0x60>
    80005032:	4501                	li	a0,0
    80005034:	0785                	addi	a5,a5,1
    80005036:	fd06859b          	addiw	a1,a3,-48
    8000503a:	00251713          	slli	a4,a0,0x2
    8000503e:	0007c683          	lbu	a3,0(a5)
    80005042:	953a                	add	a0,a0,a4
    80005044:	0506                	slli	a0,a0,0x1
    80005046:	952e                	add	a0,a0,a1
    80005048:	f6f5                	bnez	a3,80005034 <atol+0x2c>
    8000504a:	c219                	beqz	a2,80005050 <atol+0x48>
    8000504c:	40a00533          	neg	a0,a0
    80005050:	8082                	ret
    80005052:	00154683          	lbu	a3,1(a0)
    80005056:	fd378793          	addi	a5,a5,-45
    8000505a:	0017b613          	seqz	a2,a5
    8000505e:	00150793          	addi	a5,a0,1
    80005062:	fae1                	bnez	a3,80005032 <atol+0x2a>
    80005064:	4501                	li	a0,0
    80005066:	b7d5                	j	8000504a <atol+0x42>
    80005068:	4501                	li	a0,0
    8000506a:	8082                	ret

Disassembly of section .text.startup:

000000008000506c <main>:
    8000506c:	1141                	addi	sp,sp,-16
    8000506e:	00000517          	auipc	a0,0x0
    80005072:	0ea50513          	addi	a0,a0,234 # 80005158 <main+0xec>
    80005076:	e406                	sd	ra,8(sp)
    80005078:	ce7ff0ef          	jal	ra,80004d5e <printstr>
    8000507c:	60a2                	ld	ra,8(sp)
    8000507e:	557d                	li	a0,-1
    80005080:	0141                	addi	sp,sp,16
    80005082:	8082                	ret
