
rv64uf-p-move:     file format elf64-littleriscv


Disassembly of section .text.init:

0000000080000000 <_start>:
    80000000:	04c0006f          	j	8000004c <reset_vector>

0000000080000004 <trap_vector>:
    80000004:	34202f73          	csrr	t5,mcause
    80000008:	00800f93          	li	t6,8
    8000000c:	03ff0a63          	beq	t5,t6,80000040 <write_tohost>
    80000010:	00900f93          	li	t6,9
    80000014:	03ff0663          	beq	t5,t6,80000040 <write_tohost>
    80000018:	00b00f93          	li	t6,11
    8000001c:	03ff0263          	beq	t5,t6,80000040 <write_tohost>
    80000020:	80000f17          	auipc	t5,0x80000
    80000024:	fe0f0f13          	addi	t5,t5,-32 # 0 <_start-0x80000000>
    80000028:	000f0463          	beqz	t5,80000030 <trap_vector+0x2c>
    8000002c:	000f0067          	jr	t5
    80000030:	34202f73          	csrr	t5,mcause
    80000034:	000f5463          	bgez	t5,8000003c <handle_exception>
    80000038:	0040006f          	j	8000003c <handle_exception>

000000008000003c <handle_exception>:
    8000003c:	5391e193          	ori	gp,gp,1337

0000000080000040 <write_tohost>:
    80000040:	00001f17          	auipc	t5,0x1
    80000044:	fc3f2023          	sw	gp,-64(t5) # 80001000 <tohost>
    80000048:	ff9ff06f          	j	80000040 <write_tohost>

000000008000004c <reset_vector>:
    8000004c:	00000093          	li	ra,0
    80000050:	00000113          	li	sp,0
    80000054:	00000193          	li	gp,0
    80000058:	00000213          	li	tp,0
    8000005c:	00000293          	li	t0,0
    80000060:	00000313          	li	t1,0
    80000064:	00000393          	li	t2,0
    80000068:	00000413          	li	s0,0
    8000006c:	00000493          	li	s1,0
    80000070:	00000513          	li	a0,0
    80000074:	00000593          	li	a1,0
    80000078:	00000613          	li	a2,0
    8000007c:	00000693          	li	a3,0
    80000080:	00000713          	li	a4,0
    80000084:	00000793          	li	a5,0
    80000088:	00000813          	li	a6,0
    8000008c:	00000893          	li	a7,0
    80000090:	00000913          	li	s2,0
    80000094:	00000993          	li	s3,0
    80000098:	00000a13          	li	s4,0
    8000009c:	00000a93          	li	s5,0
    800000a0:	00000b13          	li	s6,0
    800000a4:	00000b93          	li	s7,0
    800000a8:	00000c13          	li	s8,0
    800000ac:	00000c93          	li	s9,0
    800000b0:	00000d13          	li	s10,0
    800000b4:	00000d93          	li	s11,0
    800000b8:	00000e13          	li	t3,0
    800000bc:	00000e93          	li	t4,0
    800000c0:	00000f13          	li	t5,0
    800000c4:	00000f93          	li	t6,0
    800000c8:	f1402573          	csrr	a0,mhartid
    800000cc:	00051063          	bnez	a0,800000cc <reset_vector+0x80>
    800000d0:	00000297          	auipc	t0,0x0
    800000d4:	01028293          	addi	t0,t0,16 # 800000e0 <reset_vector+0x94>
    800000d8:	30529073          	csrw	mtvec,t0
    800000dc:	18005073          	csrwi	satp,0
    800000e0:	00000297          	auipc	t0,0x0
    800000e4:	02428293          	addi	t0,t0,36 # 80000104 <reset_vector+0xb8>
    800000e8:	30529073          	csrw	mtvec,t0
    800000ec:	0010029b          	addiw	t0,zero,1
    800000f0:	03529293          	slli	t0,t0,0x35
    800000f4:	fff28293          	addi	t0,t0,-1
    800000f8:	3b029073          	csrw	pmpaddr0,t0
    800000fc:	01f00293          	li	t0,31
    80000100:	3a029073          	csrw	pmpcfg0,t0
    80000104:	30405073          	csrwi	mie,0
    80000108:	00000297          	auipc	t0,0x0
    8000010c:	01428293          	addi	t0,t0,20 # 8000011c <reset_vector+0xd0>
    80000110:	30529073          	csrw	mtvec,t0
    80000114:	30205073          	csrwi	medeleg,0
    80000118:	30305073          	csrwi	mideleg,0
    8000011c:	00000193          	li	gp,0
    80000120:	00000297          	auipc	t0,0x0
    80000124:	ee428293          	addi	t0,t0,-284 # 80000004 <trap_vector>
    80000128:	30529073          	csrw	mtvec,t0
    8000012c:	00100513          	li	a0,1
    80000130:	01f51513          	slli	a0,a0,0x1f
    80000134:	00055c63          	bgez	a0,8000014c <reset_vector+0x100>
    80000138:	0ff0000f          	fence
    8000013c:	00100193          	li	gp,1
    80000140:	05d00893          	li	a7,93
    80000144:	00000513          	li	a0,0
    80000148:	00000073          	ecall
    8000014c:	80000297          	auipc	t0,0x80000
    80000150:	eb428293          	addi	t0,t0,-332 # 0 <_start-0x80000000>
    80000154:	00028a63          	beqz	t0,80000168 <reset_vector+0x11c>
    80000158:	10529073          	csrw	stvec,t0
    8000015c:	0000b2b7          	lui	t0,0xb
    80000160:	1092829b          	addiw	t0,t0,265
    80000164:	30229073          	csrw	medeleg,t0
    80000168:	30005073          	csrwi	mstatus,0
    8000016c:	00002537          	lui	a0,0x2
    80000170:	30052073          	csrs	mstatus,a0
    80000174:	00305073          	csrwi	fcsr,0
    80000178:	00000297          	auipc	t0,0x0
    8000017c:	01428293          	addi	t0,t0,20 # 8000018c <test_2>
    80000180:	34129073          	csrw	mepc,t0
    80000184:	f1402573          	csrr	a0,mhartid
    80000188:	30200073          	mret

000000008000018c <test_2>:
    8000018c:	0030d073          	csrwi	fcsr,1
    80000190:	00001537          	lui	a0,0x1
    80000194:	2345051b          	addiw	a0,a0,564
    80000198:	003515f3          	fssr	a1,a0
    8000019c:	00100393          	li	t2,1
    800001a0:	00200193          	li	gp,2
    800001a4:	2a759463          	bne	a1,t2,8000044c <fail>

00000000800001a8 <test_3>:
    800001a8:	00302573          	frsr	a0
    800001ac:	03400393          	li	t2,52
    800001b0:	00300193          	li	gp,3
    800001b4:	28751c63          	bne	a0,t2,8000044c <fail>

00000000800001b8 <test_4>:
    800001b8:	00102573          	frflags	a0
    800001bc:	01400393          	li	t2,20
    800001c0:	00400193          	li	gp,4
    800001c4:	28751463          	bne	a0,t2,8000044c <fail>

00000000800001c8 <test_5>:
    800001c8:	00215573          	csrrwi	a0,frm,2
    800001cc:	00100393          	li	t2,1
    800001d0:	00500193          	li	gp,5
    800001d4:	26751c63          	bne	a0,t2,8000044c <fail>

00000000800001d8 <test_6>:
    800001d8:	00302573          	frsr	a0
    800001dc:	05400393          	li	t2,84
    800001e0:	00600193          	li	gp,6
    800001e4:	26751463          	bne	a0,t2,8000044c <fail>

00000000800001e8 <test_7>:
    800001e8:	00127573          	csrrci	a0,fflags,4
    800001ec:	01400393          	li	t2,20
    800001f0:	00700193          	li	gp,7
    800001f4:	24751c63          	bne	a0,t2,8000044c <fail>

00000000800001f8 <test_8>:
    800001f8:	00302573          	frsr	a0
    800001fc:	05000393          	li	t2,80
    80000200:	00800193          	li	gp,8
    80000204:	24751463          	bne	a0,t2,8000044c <fail>

0000000080000208 <test_10>:
    80000208:	123455b7          	lui	a1,0x12345
    8000020c:	6785859b          	addiw	a1,a1,1656
    80000210:	00000613          	li	a2,0
    80000214:	f00580d3          	fmv.w.x	ft1,a1
    80000218:	f0060153          	fmv.w.x	ft2,a2
    8000021c:	20208053          	fsgnj.s	ft0,ft1,ft2
    80000220:	e0000553          	fmv.x.w	a0,ft0
    80000224:	123453b7          	lui	t2,0x12345
    80000228:	6783839b          	addiw	t2,t2,1656
    8000022c:	00a00193          	li	gp,10
    80000230:	20751e63          	bne	a0,t2,8000044c <fail>

0000000080000234 <test_11>:
    80000234:	123455b7          	lui	a1,0x12345
    80000238:	6785859b          	addiw	a1,a1,1656
    8000023c:	fff00613          	li	a2,-1
    80000240:	f00580d3          	fmv.w.x	ft1,a1
    80000244:	f0060153          	fmv.w.x	ft2,a2
    80000248:	20208053          	fsgnj.s	ft0,ft1,ft2
    8000024c:	e0000553          	fmv.x.w	a0,ft0
    80000250:	923453b7          	lui	t2,0x92345
    80000254:	6783839b          	addiw	t2,t2,1656
    80000258:	00b00193          	li	gp,11
    8000025c:	1e751863          	bne	a0,t2,8000044c <fail>

0000000080000260 <test_12>:
    80000260:	000925b7          	lui	a1,0x92
    80000264:	3455859b          	addiw	a1,a1,837
    80000268:	00c59593          	slli	a1,a1,0xc
    8000026c:	67858593          	addi	a1,a1,1656 # 92678 <_start-0x7ff6d988>
    80000270:	00000613          	li	a2,0
    80000274:	f00580d3          	fmv.w.x	ft1,a1
    80000278:	f0060153          	fmv.w.x	ft2,a2
    8000027c:	20208053          	fsgnj.s	ft0,ft1,ft2
    80000280:	e0000553          	fmv.x.w	a0,ft0
    80000284:	123453b7          	lui	t2,0x12345
    80000288:	6783839b          	addiw	t2,t2,1656
    8000028c:	00c00193          	li	gp,12
    80000290:	1a751e63          	bne	a0,t2,8000044c <fail>

0000000080000294 <test_13>:
    80000294:	000925b7          	lui	a1,0x92
    80000298:	3455859b          	addiw	a1,a1,837
    8000029c:	00c59593          	slli	a1,a1,0xc
    800002a0:	67858593          	addi	a1,a1,1656 # 92678 <_start-0x7ff6d988>
    800002a4:	fff00613          	li	a2,-1
    800002a8:	f00580d3          	fmv.w.x	ft1,a1
    800002ac:	f0060153          	fmv.w.x	ft2,a2
    800002b0:	20208053          	fsgnj.s	ft0,ft1,ft2
    800002b4:	e0000553          	fmv.x.w	a0,ft0
    800002b8:	923453b7          	lui	t2,0x92345
    800002bc:	6783839b          	addiw	t2,t2,1656
    800002c0:	00d00193          	li	gp,13
    800002c4:	18751463          	bne	a0,t2,8000044c <fail>

00000000800002c8 <test_20>:
    800002c8:	123455b7          	lui	a1,0x12345
    800002cc:	6785859b          	addiw	a1,a1,1656
    800002d0:	00000613          	li	a2,0
    800002d4:	f00580d3          	fmv.w.x	ft1,a1
    800002d8:	f0060153          	fmv.w.x	ft2,a2
    800002dc:	20209053          	fsgnjn.s	ft0,ft1,ft2
    800002e0:	e0000553          	fmv.x.w	a0,ft0
    800002e4:	923453b7          	lui	t2,0x92345
    800002e8:	6783839b          	addiw	t2,t2,1656
    800002ec:	01400193          	li	gp,20
    800002f0:	14751e63          	bne	a0,t2,8000044c <fail>

00000000800002f4 <test_21>:
    800002f4:	123455b7          	lui	a1,0x12345
    800002f8:	6785859b          	addiw	a1,a1,1656
    800002fc:	fff00613          	li	a2,-1
    80000300:	f00580d3          	fmv.w.x	ft1,a1
    80000304:	f0060153          	fmv.w.x	ft2,a2
    80000308:	20209053          	fsgnjn.s	ft0,ft1,ft2
    8000030c:	e0000553          	fmv.x.w	a0,ft0
    80000310:	123453b7          	lui	t2,0x12345
    80000314:	6783839b          	addiw	t2,t2,1656
    80000318:	01500193          	li	gp,21
    8000031c:	12751863          	bne	a0,t2,8000044c <fail>

0000000080000320 <test_22>:
    80000320:	000925b7          	lui	a1,0x92
    80000324:	3455859b          	addiw	a1,a1,837
    80000328:	00c59593          	slli	a1,a1,0xc
    8000032c:	67858593          	addi	a1,a1,1656 # 92678 <_start-0x7ff6d988>
    80000330:	00000613          	li	a2,0
    80000334:	f00580d3          	fmv.w.x	ft1,a1
    80000338:	f0060153          	fmv.w.x	ft2,a2
    8000033c:	20209053          	fsgnjn.s	ft0,ft1,ft2
    80000340:	e0000553          	fmv.x.w	a0,ft0
    80000344:	923453b7          	lui	t2,0x92345
    80000348:	6783839b          	addiw	t2,t2,1656
    8000034c:	01600193          	li	gp,22
    80000350:	0e751e63          	bne	a0,t2,8000044c <fail>

0000000080000354 <test_23>:
    80000354:	000925b7          	lui	a1,0x92
    80000358:	3455859b          	addiw	a1,a1,837
    8000035c:	00c59593          	slli	a1,a1,0xc
    80000360:	67858593          	addi	a1,a1,1656 # 92678 <_start-0x7ff6d988>
    80000364:	fff00613          	li	a2,-1
    80000368:	f00580d3          	fmv.w.x	ft1,a1
    8000036c:	f0060153          	fmv.w.x	ft2,a2
    80000370:	20209053          	fsgnjn.s	ft0,ft1,ft2
    80000374:	e0000553          	fmv.x.w	a0,ft0
    80000378:	123453b7          	lui	t2,0x12345
    8000037c:	6783839b          	addiw	t2,t2,1656
    80000380:	01700193          	li	gp,23
    80000384:	0c751463          	bne	a0,t2,8000044c <fail>

0000000080000388 <test_30>:
    80000388:	123455b7          	lui	a1,0x12345
    8000038c:	6785859b          	addiw	a1,a1,1656
    80000390:	00000613          	li	a2,0
    80000394:	f00580d3          	fmv.w.x	ft1,a1
    80000398:	f0060153          	fmv.w.x	ft2,a2
    8000039c:	2020a053          	fsgnjx.s	ft0,ft1,ft2
    800003a0:	e0000553          	fmv.x.w	a0,ft0
    800003a4:	123453b7          	lui	t2,0x12345
    800003a8:	6783839b          	addiw	t2,t2,1656
    800003ac:	01e00193          	li	gp,30
    800003b0:	08751e63          	bne	a0,t2,8000044c <fail>

00000000800003b4 <test_31>:
    800003b4:	123455b7          	lui	a1,0x12345
    800003b8:	6785859b          	addiw	a1,a1,1656
    800003bc:	fff00613          	li	a2,-1
    800003c0:	f00580d3          	fmv.w.x	ft1,a1
    800003c4:	f0060153          	fmv.w.x	ft2,a2
    800003c8:	2020a053          	fsgnjx.s	ft0,ft1,ft2
    800003cc:	e0000553          	fmv.x.w	a0,ft0
    800003d0:	923453b7          	lui	t2,0x92345
    800003d4:	6783839b          	addiw	t2,t2,1656
    800003d8:	01f00193          	li	gp,31
    800003dc:	06751863          	bne	a0,t2,8000044c <fail>

00000000800003e0 <test_32>:
    800003e0:	000925b7          	lui	a1,0x92
    800003e4:	3455859b          	addiw	a1,a1,837
    800003e8:	00c59593          	slli	a1,a1,0xc
    800003ec:	67858593          	addi	a1,a1,1656 # 92678 <_start-0x7ff6d988>
    800003f0:	00000613          	li	a2,0
    800003f4:	f00580d3          	fmv.w.x	ft1,a1
    800003f8:	f0060153          	fmv.w.x	ft2,a2
    800003fc:	2020a053          	fsgnjx.s	ft0,ft1,ft2
    80000400:	e0000553          	fmv.x.w	a0,ft0
    80000404:	923453b7          	lui	t2,0x92345
    80000408:	6783839b          	addiw	t2,t2,1656
    8000040c:	02000193          	li	gp,32
    80000410:	02751e63          	bne	a0,t2,8000044c <fail>

0000000080000414 <test_33>:
    80000414:	000925b7          	lui	a1,0x92
    80000418:	3455859b          	addiw	a1,a1,837
    8000041c:	00c59593          	slli	a1,a1,0xc
    80000420:	67858593          	addi	a1,a1,1656 # 92678 <_start-0x7ff6d988>
    80000424:	fff00613          	li	a2,-1
    80000428:	f00580d3          	fmv.w.x	ft1,a1
    8000042c:	f0060153          	fmv.w.x	ft2,a2
    80000430:	2020a053          	fsgnjx.s	ft0,ft1,ft2
    80000434:	e0000553          	fmv.x.w	a0,ft0
    80000438:	123453b7          	lui	t2,0x12345
    8000043c:	6783839b          	addiw	t2,t2,1656
    80000440:	02100193          	li	gp,33
    80000444:	00751463          	bne	a0,t2,8000044c <fail>
    80000448:	02301063          	bne	zero,gp,80000468 <pass>

000000008000044c <fail>:
    8000044c:	0ff0000f          	fence
    80000450:	00018063          	beqz	gp,80000450 <fail+0x4>
    80000454:	00119193          	slli	gp,gp,0x1
    80000458:	0011e193          	ori	gp,gp,1
    8000045c:	05d00893          	li	a7,93
    80000460:	00018513          	mv	a0,gp
    80000464:	00000073          	ecall

0000000080000468 <pass>:
    80000468:	0ff0000f          	fence
    8000046c:	00100193          	li	gp,1
    80000470:	05d00893          	li	a7,93
    80000474:	00000513          	li	a0,0
    80000478:	00000073          	ecall
    8000047c:	c0001073          	unimp
    80000480:	0000                	unimp
    80000482:	0000                	unimp
